                        .module app.c
                        .area text(rom, con, rel)
 0000                   .dbfile App\app.c
                        .area lit(rom, con, rel)
 0000           _Color::
 0000 1084              .word 33808
 0002 0000              .word 0
 0004                   .dbfile E:\1.JD_Project\21.Android-360\1.Android-360Code\App\app.c
 0004                   .dbsym e Color _Color A[4:2]ki
 0004           _Color1::
 0004 00F8              .word 63488
 0006 0000              .word 0
 0008                   .dbsym e Color1 _Color1 A[4:2]ki
                        .area data(ram, con, rel)
 0000                   .dbfile E:\1.JD_Project\21.Android-360\1.Android-360Code\App\app.c
 0000           _UL_workdate::
 0000                   .blkb 1
                        .area idata
 0000 00                .byte 0
                        .area data(ram, con, rel)
 0001                   .dbfile E:\1.JD_Project\21.Android-360\1.Android-360Code\App\app.c
 0001                   .dbsym e UL_workdate _UL_workdate c
 0001           _POWER_LEVEL::
 0001                   .blkb 1
                        .area idata
 0001 00                .byte 0
                        .area data(ram, con, rel)
 0002                   .dbfile E:\1.JD_Project\21.Android-360\1.Android-360Code\App\app.c
 0002                   .dbsym e POWER_LEVEL _POWER_LEVEL c
                        .area lit(rom, con, rel)
 0008           _pxy::
 0008 4C00              .word 76
 000A 9600              .word 150
 000C 7C00              .word 124
 000E AE00              .word 174
 0010 8A00              .word 138
 0012 1801              .word 280
 0014 AE00              .word 174
 0016 3001              .word 304
 0018 BB00              .word 187
 001A 9600              .word 150
 001C EB00              .word 235
 001E AE00              .word 174
 0020 F700              .word 247
 0022 1801              .word 280
 0024 1B01              .word 283
 0026 3001              .word 304
 0028 2801              .word 296
 002A 9600              .word 150
 002C 5801              .word 344
 002E AE00              .word 174
 0030 7300              .word 115
 0032 6001              .word 352
 0034 A300              .word 163
 0036 7801              .word 376
 0038 0401              .word 260
 003A 6001              .word 352
 003C 3401              .word 308
 003E 7801              .word 376
 0040 7201              .word 370
 0042 6001              .word 352
 0044 A201              .word 418
 0046 7801              .word 376
 0048                   .dbsym e pxy _pxy A[64:8:4]ki
 0048           _temp_text::
 0048 4F464600          .byte 'O,'F,'F,0
 004C 4F4E2000          .byte 'O,'N,32,0
 0050                   .dbsym e temp_text _temp_text A[8:2:4]kc
 0050           _user_type::
 0050 4E554C4C2000      .byte 'N,'U,'L,'L,32,0
 0056 477565737400      .byte 'G,'u,'e,'s,'t,0
 005C 557365722000      .byte 'U,'s,'e,'r,32,0
 0062 537570657200      .byte 'S,'u,'p,'e,'r,0
 0068                   .dbsym e user_type _user_type A[24:4:6]kc
                        .area text(rom, con, rel)
 0000                   .dbfile E:\1.JD_Project\21.Android-360\1.Android-360Code\App\app.c
 0000                   .dbfunc e delay_ms _delay_ms fV
 0000           ;              x -> R20,R21
 0000           ;              y -> R22,R23
 0000           ;              i -> R16,R17
                        .even
 0000           _delay_ms::
 0000 0E940000          xcall push_xgsetF000
 0004                   .dbline -1
 0004                   .dbline 23
 0004           ; #include "includes.h"
 0004           ; const unsigned int Color[2]={0x8410,0};
 0004           ; const unsigned int Color1[2]={0xf800,0};
 0004           ; unsigned char UL_workdate=0;//?????????????
 0004           ; unsigned char POWER_LEVEL=0;//
 0004           ; 
 0004           ; extern void TASK_SendToDwin(void);
 0004           ; extern void TASK_PROCESSING(void);
 0004           ; const unsigned int pxy[8][4]=
 0004           ; {
 0004           ;   { 76,150,124,174},
 0004           ;   {138,280,174,304},
 0004           ;   {187,150,235,174},
 0004           ;   {247,280,283,304},
 0004           ;   {296,150,344,174},
 0004           ;   {115,352,163,376},
 0004           ;   {260,352,308,376},
 0004           ;   {370,352,418,376}
 0004           ; };
 0004           ; const unsigned char temp_text[2][4]={"OFF\0","ON \0"};
 0004           ; const unsigned char user_type[4][6]={"NULL \0","Guest\0","User \0","Super\0"};
 0004           ; void delay_ms(unsigned int i)
 0004           ; {
 0004                   .dbline 25
 0004           ;   unsigned int x,y;
 0004           ;   for(x=0;x<i;x++)
 0004 4427              clr R20
 0006 5527              clr R21
 0008 0BC0              xjmp L9
 000A           L6:
 000A                   .dbline 26
 000A           ;   {
 000A                   .dbline 27
 000A           ;     for(y=0;y<1141;y++); 
 000A 6627              clr R22
 000C 7727              clr R23
 000E 02C0              xjmp L13
 0010           L10:
 0010                   .dbline 27
 0010           L11:
 0010                   .dbline 27
 0010 6F5F              subi R22,255  ; offset = 1
 0012 7F4F              sbci R23,255
 0014           L13:
 0014                   .dbline 27
 0014 6537              cpi R22,117
 0016 E4E0              ldi R30,4
 0018 7E07              cpc R23,R30
 001A D0F3              brlo L10
 001C           X0:
 001C                   .dbline 28
 001C           ;   }
 001C           L7:
 001C                   .dbline 25
 001C 4F5F              subi R20,255  ; offset = 1
 001E 5F4F              sbci R21,255
 0020           L9:
 0020                   .dbline 25
 0020 4017              cp R20,R16
 0022 5107              cpc R21,R17
 0024 90F3              brlo L6
 0026           X1:
 0026                   .dbline -2
 0026           L5:
 0026                   .dbline 0 ; func end
 0026 0C940000          xjmp pop_xgsetF000
 002A                   .dbsym r x 20 i
 002A                   .dbsym r y 22 i
 002A                   .dbsym r i 16 i
 002A                   .dbend
                        .area data(ram, con, rel)
 0002                   .dbfile E:\1.JD_Project\21.Android-360\1.Android-360Code\App\app.c
 0002           L15:
 0002                   .blkb 1
                        .area idata
 0002 00                .byte 0
                        .area data(ram, con, rel)
 0003                   .dbfile E:\1.JD_Project\21.Android-360\1.Android-360Code\App\app.c
 0003           L16:
 0003                   .blkb 1
                        .area idata
 0003 00                .byte 0
                        .area data(ram, con, rel)
 0004                   .dbfile E:\1.JD_Project\21.Android-360\1.Android-360Code\App\app.c
 0004           L17:
 0004                   .blkb 1
                        .area idata
 0004 00                .byte 0
                        .area data(ram, con, rel)
 0005                   .dbfile E:\1.JD_Project\21.Android-360\1.Android-360Code\App\app.c
                        .area text(rom, con, rel)
 002A                   .dbfile E:\1.JD_Project\21.Android-360\1.Android-360Code\App\app.c
 002A                   .dbfunc e DataSynchronization _DataSynchronization fV
 002A                   .dbsym s count3 L17 c
 002A                   .dbsym s count2 L16 c
 002A                   .dbsym s count1 L15 c
 002A           ;       foot_buf -> <dead>
                        .even
 002A           _DataSynchronization::
 002A 4A93              st -y,R20
 002C 5A93              st -y,R21
 002E                   .dbline -1
 002E                   .dbline 31
 002E           ; }
 002E           ; void DataSynchronization(void)
 002E           ; {
 002E                   .dbline 38
 002E           ;   unsigned char foot_buf;
 002E           ;   static unsigned char count1=0;
 002E           ;   static unsigned char count2=0;
 002E           ;   static unsigned char count3=0;
 002E           ;   
 002E           ; 
 002E           ;   TASK_SendToDwin(); //迪文屏串口通讯
 002E 0E940000          xcall _TASK_SendToDwin
 0032                   .dbline 39
 0032           ;   TASK_PROCESSING();//参数处理函数
 0032 0E940000          xcall _TASK_PROCESSING
 0036                   .dbline 40
 0036           ;   if (MACHINE_STATE.HANDLE_ID==1)
 0036 80910000          lds R24,_MACHINE_STATE
 003A 8130              cpi R24,1
 003C 11F4              brne L18
 003E           X2:
 003E                   .dbline 41
 003E           ;   {
 003E                   .dbline 42
 003E           ;     dispose_data();//1号手柄数据同步
 003E 0E940000          xcall _dispose_data
 0042                   .dbline 43
 0042           ;   }
 0042           L18:
 0042                   .dbline 44
 0042           ;   if (MACHINE_STATE.WORK_STATE==1)//启动
 0042 80910100          lds R24,_MACHINE_STATE+1
 0046 8130              cpi R24,1
 0048 09F0              breq X13
 004A 45C0              xjmp L20
 004C           X13:
 004C           X3:
 004C                   .dbline 45
 004C           ;   {
 004C                   .dbline 46
 004C           ;     if(MACHINE_STATE.HANDLE_ID==5)//5号爆脂手柄
 004C 80910000          lds R24,_MACHINE_STATE
 0050 8530              cpi R24,5
 0052 09F0              breq X14
 0054 3FC0              xjmp L23
 0056           X14:
 0056           X4:
 0056                   .dbline 47
 0056           ;     {        
 0056                   .dbline 48
 0056           ;      switch (SAVE_FAT_FLAME)
 0056 40910000          lds R20,_SAVE_FAT_FLAME
 005A 5527              clr R21
 005C 4030              cpi R20,0
 005E 4507              cpc R20,R21
 0060 A9F0              breq L28
 0062           X5:
 0062 4130              cpi R20,1
 0064 E0E0              ldi R30,0
 0066 5E07              cpc R21,R30
 0068 B9F0              breq L29
 006A           X6:
 006A 4230              cpi R20,2
 006C E0E0              ldi R30,0
 006E 5E07              cpc R21,R30
 0070 C9F0              breq L30
 0072           X7:
 0072 4330              cpi R20,3
 0074 E0E0              ldi R30,0
 0076 5E07              cpc R21,R30
 0078 D9F0              breq L31
 007A           X8:
 007A 4430              cpi R20,4
 007C E0E0              ldi R30,0
 007E 5E07              cpc R21,R30
 0080 E9F0              breq L32
 0082           X9:
 0082 4530              cpi R20,5
 0084 E0E0              ldi R30,0
 0086 5E07              cpc R21,R30
 0088 F9F0              breq L33
 008A           X10:
 008A 25C0              xjmp L24
 008C           L28:
 008C                   .dbline 50
 008C           ;      {
 008C           ;       case 0:POWER1_OFF;POWER2_OFF;POWER3_OFF;POWER4_OFF;POWER5_OFF; break;
 008C D99A              sbi 0x1b,1
 008E                   .dbline 50
 008E DA9A              sbi 0x1b,2
 0090                   .dbline 50
 0090 DB9A              sbi 0x1b,3
 0092                   .dbline 50
 0092 DC9A              sbi 0x1b,4
 0094                   .dbline 50
 0094 DD9A              sbi 0x1b,5
 0096                   .dbline 50
 0096 1FC0              xjmp L24
 0098           L29:
 0098                   .dbline 51
 0098           ;       case 1:POWER1_ON;POWER2_OFF;POWER3_OFF;POWER4_OFF;POWER5_OFF; break;
 0098 D998              cbi 0x1b,1
 009A                   .dbline 51
 009A DA9A              sbi 0x1b,2
 009C                   .dbline 51
 009C DB9A              sbi 0x1b,3
 009E                   .dbline 51
 009E DC9A              sbi 0x1b,4
 00A0                   .dbline 51
 00A0 DD9A              sbi 0x1b,5
 00A2                   .dbline 51
 00A2 19C0              xjmp L24
 00A4           L30:
 00A4                   .dbline 52
 00A4           ;       case 2:POWER1_OFF;POWER2_ON;POWER3_OFF;POWER4_OFF;POWER5_OFF; break;
 00A4 D99A              sbi 0x1b,1
 00A6                   .dbline 52
 00A6 DA98              cbi 0x1b,2
 00A8                   .dbline 52
 00A8 DB9A              sbi 0x1b,3
 00AA                   .dbline 52
 00AA DC9A              sbi 0x1b,4
 00AC                   .dbline 52
 00AC DD9A              sbi 0x1b,5
 00AE                   .dbline 52
 00AE 13C0              xjmp L24
 00B0           L31:
 00B0                   .dbline 53
 00B0           ;       case 3:POWER1_OFF;POWER2_OFF;POWER3_ON;POWER4_OFF;POWER5_OFF;  break;   
 00B0 D99A              sbi 0x1b,1
 00B2                   .dbline 53
 00B2 DA9A              sbi 0x1b,2
 00B4                   .dbline 53
 00B4 DB98              cbi 0x1b,3
 00B6                   .dbline 53
 00B6 DC9A              sbi 0x1b,4
 00B8                   .dbline 53
 00B8 DD9A              sbi 0x1b,5
 00BA                   .dbline 53
 00BA 0DC0              xjmp L24
 00BC           L32:
 00BC                   .dbline 54
 00BC           ;       case 4:POWER1_OFF;POWER2_OFF;POWER3_OFF;POWER4_ON;POWER5_OFF;  break;
 00BC D99A              sbi 0x1b,1
 00BE                   .dbline 54
 00BE DA9A              sbi 0x1b,2
 00C0                   .dbline 54
 00C0 DB9A              sbi 0x1b,3
 00C2                   .dbline 54
 00C2 DC98              cbi 0x1b,4
 00C4                   .dbline 54
 00C4 DD9A              sbi 0x1b,5
 00C6                   .dbline 54
 00C6 07C0              xjmp L24
 00C8           L33:
 00C8                   .dbline 55
 00C8           ;       case 5:POWER1_OFF;POWER2_OFF;POWER3_OFF;POWER4_OFF;POWER5_ON;  break;
 00C8 D99A              sbi 0x1b,1
 00CA                   .dbline 55
 00CA DA9A              sbi 0x1b,2
 00CC                   .dbline 55
 00CC DB9A              sbi 0x1b,3
 00CE                   .dbline 55
 00CE DC9A              sbi 0x1b,4
 00D0                   .dbline 55
 00D0 DD98              cbi 0x1b,5
 00D2                   .dbline 55
 00D2                   .dbline 57
 00D2           ;       default:
 00D2           ;       break;
 00D2                   .dbline 59
 00D2           ;      }
 00D2           ;     }
 00D2 01C0              xjmp L24
 00D4           L23:
 00D4                   .dbline 61
 00D4           ;     else
 00D4           ;     {
 00D4                   .dbline 62
 00D4           ;       DisWork();
 00D4 31D3              xcall _DisWork
 00D6                   .dbline 63
 00D6           ;     }
 00D6           L24:
 00D6                   .dbline 64
 00D6           ;   }
 00D6           L20:
 00D6                   .dbline 65
 00D6           ;   if (MACHINE_STATE.WORK_STATE==0)//停止
 00D6 20900100          lds R2,_MACHINE_STATE+1
 00DA 2220              tst R2
 00DC 49F4              brne L34
 00DE           X11:
 00DE                   .dbline 66
 00DE           ;   {
 00DE                   .dbline 67
 00DE           ;     if(MACHINE_STATE.HANDLE_ID==5)//5号爆脂手柄
 00DE 80910000          lds R24,_MACHINE_STATE
 00E2 8530              cpi R24,5
 00E4 29F4              brne L37
 00E6           X12:
 00E6                   .dbline 68
 00E6           ;     {        
 00E6                   .dbline 69
 00E6           ;     POWER1_OFF;POWER2_OFF;POWER3_OFF;POWER4_OFF;POWER5_OFF;
 00E6 D99A              sbi 0x1b,1
 00E8                   .dbline 69
 00E8 DA9A              sbi 0x1b,2
 00EA                   .dbline 69
 00EA DB9A              sbi 0x1b,3
 00EC                   .dbline 69
 00EC DC9A              sbi 0x1b,4
 00EE                   .dbline 69
 00EE DD9A              sbi 0x1b,5
 00F0                   .dbline 70
 00F0           ;     }
 00F0           L37:
 00F0                   .dbline 72
 00F0           ; 
 00F0           ;   }
 00F0           L34:
 00F0                   .dbline -2
 00F0           L14:
 00F0                   .dbline 0 ; func end
 00F0 5991              ld R21,y+
 00F2 4991              ld R20,y+
 00F4 0895              ret
 00F6                   .dbsym l foot_buf 1 c
 00F6                   .dbend
 00F6                   .dbfunc e ItoA _ItoA fV
 00F6           ;              i -> R22,R23
 00F6           ;           Text -> R20,R21
 00F6           ;              x -> R10,R11
                        .even
 00F6           _ItoA::
 00F6 0E940000          xcall push_xgsetF00C
 00FA A901              movw R20,R18
 00FC 5801              movw R10,R16
 00FE                   .dbline -1
 00FE                   .dbline 78
 00FE           ; 
 00FE           ; }
 00FE           ; 
 00FE           ; 
 00FE           ; void ItoA(unsigned int x,unsigned char *Text)
 00FE           ; {
 00FE                   .dbline 79
 00FE           ;   unsigned int i=10000;
 00FE 60E1              ldi R22,10000
 0100 77E2              ldi R23,39
 0102 15C0              xjmp L41
 0104           L40:
 0104                   .dbline 81
 0104           ;   while(i>0)
 0104           ;   {
 0104                   .dbline 82
 0104           ;    *Text=x/i+'0';
 0104 9B01              movw R18,R22
 0106 8501              movw R16,R10
 0108 0E940000          xcall div16u
 010C C801              movw R24,R16
 010E C096              adiw R24,48
 0110 FA01              movw R30,R20
 0112 8083              std z+0,R24
 0114                   .dbline 83
 0114           ;    x%=i;
 0114 9B01              movw R18,R22
 0116 8501              movw R16,R10
 0118 0E940000          xcall mod16u
 011C 5801              movw R10,R16
 011E                   .dbline 84
 011E           ;    i=i/10;
 011E 2AE0              ldi R18,10
 0120 30E0              ldi R19,0
 0122 8B01              movw R16,R22
 0124 0E940000          xcall div16u
 0128 B801              movw R22,R16
 012A                   .dbline 85
 012A           ;    Text++; 
 012A 4F5F              subi R20,255  ; offset = 1
 012C 5F4F              sbci R21,255
 012E                   .dbline 86
 012E           ;   }
 012E           L41:
 012E                   .dbline 80
 012E 6030              cpi R22,0
 0130 6707              cpc R22,R23
 0132 41F7              brne L40
 0134           X15:
 0134                   .dbline 87
 0134           ;    *Text='\0';
 0134 2224              clr R2
 0136 FA01              movw R30,R20
 0138 2082              std z+0,R2
 013A                   .dbline -2
 013A           L39:
 013A                   .dbline 0 ; func end
 013A 0C940000          xjmp pop_xgsetF00C
 013E                   .dbsym r i 22 i
 013E                   .dbsym r Text 20 pc
 013E                   .dbsym r x 10 i
 013E                   .dbend
 013E                   .dbfunc e LtoA _LtoA fV
 013E           ;              i -> y+0
 013E           ;           Text -> R10,R11
 013E           ;              x -> y+10
                        .even
 013E           _LtoA::
 013E 0E940000          xcall push_arg4
 0142 0E940000          xcall push_xgsetF00C
 0146 2497              sbiw R28,4
 0148 AE84              ldd R10,y+14
 014A BF84              ldd R11,y+15
 014C                   .dbline -1
 014C                   .dbline 90
 014C           ; }
 014C           ; void LtoA(unsigned long x,unsigned char *Text)
 014C           ; {
 014C                   .dbline 91
 014C           ;   unsigned long i=1000000;
 014C 80E4              ldi R24,64
 014E 8883              std y+0,R24
 0150 82E4              ldi R24,66
 0152 8983              std y+1,R24
 0154 8FE0              ldi R24,15
 0156 8A83              std y+2,R24
 0158 80E0              ldi R24,0
 015A 8B83              std y+3,R24
 015C                   .dbline 92
 015C           ;   x%=10000000;
 015C 40E8              ldi R20,128
 015E 56E9              ldi R21,150
 0160 68E9              ldi R22,152
 0162 70E0              ldi R23,0
 0164 0A85              ldd R16,y+10
 0166 1B85              ldd R17,y+11
 0168 2C85              ldd R18,y+12
 016A 3D85              ldd R19,y+13
 016C 7A93              st -y,R23
 016E 6A93              st -y,R22
 0170 5A93              st -y,R21
 0172 4A93              st -y,R20
 0174 0E940000          xcall mod32u
 0178 0A87              std y+10,R16
 017A 1B87              std y+11,R17
 017C 2C87              std y+12,R18
 017E 3D87              std y+13,R19
 0180 41C0              xjmp L45
 0182           L44:
 0182                   .dbline 94
 0182           ;   while(i>0)
 0182           ;   {
 0182                   .dbline 95
 0182           ;    *Text=x/i+'0';
 0182 2880              ldd R2,y+0
 0184 3980              ldd R3,y+1
 0186 4A80              ldd R4,y+2
 0188 5B80              ldd R5,y+3
 018A 0A85              ldd R16,y+10
 018C 1B85              ldd R17,y+11
 018E 2C85              ldd R18,y+12
 0190 3D85              ldd R19,y+13
 0192 5A92              st -y,R5
 0194 4A92              st -y,R4
 0196 3A92              st -y,R3
 0198 2A92              st -y,R2
 019A 0E940000          xcall div32u
 019E 40E3              ldi R20,48
 01A0 50E0              ldi R21,0
 01A2 60E0              ldi R22,0
 01A4 70E0              ldi R23,0
 01A6 1801              movw R2,R16
 01A8 2901              movw R4,R18
 01AA 240E              add R2,R20
 01AC 351E              adc R3,R21
 01AE 461E              adc R4,R22
 01B0 571E              adc R5,R23
 01B2 F501              movw R30,R10
 01B4 2082              std z+0,R2
 01B6                   .dbline 96
 01B6           ;    x%=i;
 01B6 2880              ldd R2,y+0
 01B8 3980              ldd R3,y+1
 01BA 4A80              ldd R4,y+2
 01BC 5B80              ldd R5,y+3
 01BE 0A85              ldd R16,y+10
 01C0 1B85              ldd R17,y+11
 01C2 2C85              ldd R18,y+12
 01C4 3D85              ldd R19,y+13
 01C6 5A92              st -y,R5
 01C8 4A92              st -y,R4
 01CA 3A92              st -y,R3
 01CC 2A92              st -y,R2
 01CE 0E940000          xcall mod32u
 01D2 0A87              std y+10,R16
 01D4 1B87              std y+11,R17
 01D6 2C87              std y+12,R18
 01D8 3D87              std y+13,R19
 01DA                   .dbline 97
 01DA           ;    i=i/10;
 01DA 4AE0              ldi R20,10
 01DC 50E0              ldi R21,0
 01DE 60E0              ldi R22,0
 01E0 70E0              ldi R23,0
 01E2 0881              ldd R16,y+0
 01E4 1981              ldd R17,y+1
 01E6 2A81              ldd R18,y+2
 01E8 3B81              ldd R19,y+3
 01EA 7A93              st -y,R23
 01EC 6A93              st -y,R22
 01EE 5A93              st -y,R21
 01F0 4A93              st -y,R20
 01F2 0E940000          xcall div32u
 01F6 0883              std y+0,R16
 01F8 1983              std y+1,R17
 01FA 2A83              std y+2,R18
 01FC 3B83              std y+3,R19
 01FE                   .dbline 98
 01FE           ;    Text++; 
 01FE C501              movw R24,R10
 0200 0196              adiw R24,1
 0202 5C01              movw R10,R24
 0204                   .dbline 99
 0204           ;   }
 0204           L45:
 0204                   .dbline 93
 0204 2880              ldd R2,y+0
 0206 3980              ldd R3,y+1
 0208 4A80              ldd R4,y+2
 020A 5B80              ldd R5,y+3
 020C 8894              clc
 020E 2220              tst R2
 0210 3204              cpc R3,R2
 0212 4204              cpc R4,R2
 0214 5204              cpc R5,R2
 0216 09F0              breq X17
 0218 B4CF              xjmp L44
 021A           X17:
 021A           X16:
 021A                   .dbline 100
 021A           ;    *Text='\0';
 021A 2224              clr R2
 021C F501              movw R30,R10
 021E 2082              std z+0,R2
 0220                   .dbline -2
 0220           L43:
 0220                   .dbline 0 ; func end
 0220 2496              adiw R28,4
 0222 0E940000          xcall pop_xgsetF00C
 0226 2496              adiw R28,4
 0228 0895              ret
 022A                   .dbsym l i 0 l
 022A                   .dbsym r Text 10 pc
 022A                   .dbsym l x 10 l
 022A                   .dbend
                        .area data(ram, con, rel)
 0005                   .dbfile E:\1.JD_Project\21.Android-360\1.Android-360Code\App\app.c
 0005           L48:
 0005                   .blkb 1
                        .area idata
 0005 00                .byte 0
                        .area data(ram, con, rel)
 0006                   .dbfile E:\1.JD_Project\21.Android-360\1.Android-360Code\App\app.c
                        .area text(rom, con, rel)
 022A                   .dbfile E:\1.JD_Project\21.Android-360\1.Android-360Code\App\app.c
 022A                   .dbfunc e DisCount _DisCount fV
 022A                   .dbsym s time L48 c
                        .even
 022A           _DisCount::
 022A AA92              st -y,R10
 022C BA92              st -y,R11
 022E 2C97              sbiw R28,12
 0230                   .dbline -1
 0230                   .dbline 104
 0230           ; }
 0230           ; 
 0230           ; void DisCount(void)
 0230           ; {
 0230                   .dbline 106
 0230           ;   static unsigned char time=0;
 0230           ;   if(DisPage!=WORKPAGE) return;
 0230 80910000          lds R24,_DisPage
 0234 8531              cpi R24,21
 0236 09F0              breq L49
 0238           X18:
 0238                   .dbline 106
 0238 B9C0              xjmp L47
 023A           L49:
 023A                   .dbline 107
 023A           ;   if(time<60)
 023A 80910500          lds R24,L48
 023E 8C33              cpi R24,60
 0240 58F4              brsh L51
 0242           X19:
 0242                   .dbline 108
 0242           ;   {
 0242                   .dbline 109
 0242           ;     if(Work==1) time++;
 0242 80910000          lds R24,_Work
 0246 8130              cpi R24,1
 0248 09F0              breq X27
 024A 40C0              xjmp L52
 024C           X27:
 024C           X20:
 024C                   .dbline 109
 024C 80910500          lds R24,L48
 0250 8F5F              subi R24,255    ; addi 1
 0252 80930500          sts L48,R24
 0256                   .dbline 110
 0256           ;   }
 0256 3AC0              xjmp L52
 0258           L51:
 0258                   .dbline 112
 0258           ;   else
 0258           ;   {
 0258                   .dbline 113
 0258           ;     time=0;
 0258 2224              clr R2
 025A 20920500          sts L48,R2
 025E                   .dbline 114
 025E           ;       Total_counter+=1;
 025E 81E0              ldi R24,1
 0260 90E0              ldi R25,0
 0262 A0E0              ldi R26,0
 0264 B0E0              ldi R27,0
 0266 40900200          lds R4,_Total_counter+2
 026A 50900300          lds R5,_Total_counter+2+1
 026E 20900000          lds R2,_Total_counter
 0272 30900100          lds R3,_Total_counter+1
 0276 280E              add R2,R24
 0278 391E              adc R3,R25
 027A 4A1E              adc R4,R26
 027C 5B1E              adc R5,R27
 027E 30920100          sts _Total_counter+1,R3
 0282 20920000          sts _Total_counter,R2
 0286 50920300          sts _Total_counter+2+1,R5
 028A 40920200          sts _Total_counter+2,R4
 028E                   .dbline 116
 028E           ;       //EEPROMWriteBytes(CounterAddr+hand[Intensity[8]]*4,&Total_counter,4);//Total_counter???u32????????????????????????????????????????????????????????
 028E           ;     if(CardSet==0) Work_counter+=1;
 028E 20900000          lds R2,_CardSet
 0292 2220              tst R2
 0294 51F4              brne L55
 0296           X21:
 0296                   .dbline 116
 0296 80910000          lds R24,_Work_counter
 029A 90910100          lds R25,_Work_counter+1
 029E 0196              adiw R24,1
 02A0 90930100          sts _Work_counter+1,R25
 02A4 80930000          sts _Work_counter,R24
 02A8 11C0              xjmp L56
 02AA           L55:
 02AA                   .dbline 117
 02AA           ;       else if(Card_Counter>0)
 02AA 20900000          lds R2,_Card_Counter
 02AE 30900100          lds R3,_Card_Counter+1
 02B2 2220              tst R2
 02B4 11F4              brne X22
 02B6 3320              tst R3
 02B8 49F0              breq L57
 02BA           X22:
 02BA                   .dbline 118
 02BA           ;       {
 02BA                   .dbline 119
 02BA           ;         Card_Counter-=1;
 02BA C101              movw R24,R2
 02BC 0197              sbiw R24,1
 02BE 90930100          sts _Card_Counter+1,R25
 02C2 80930000          sts _Card_Counter,R24
 02C6                   .dbline 120
 02C6           ;         Card_Command=1;
 02C6 81E0              ldi R24,1
 02C8 80930000          sts _Card_Command,R24
 02CC                   .dbline 121
 02CC           ;       }
 02CC           L57:
 02CC           L56:
 02CC                   .dbline 122
 02CC           ;   }
 02CC           L52:
 02CC                   .dbline 123
 02CC           ;   if(CardSet==0) ItoA(Work_counter,Text1); //??????????
 02CC 20900000          lds R2,_CardSet
 02D0 2220              tst R2
 02D2 41F4              brne L59
 02D4           X23:
 02D4                   .dbline 123
 02D4 20E0              ldi R18,<_Text1
 02D6 30E0              ldi R19,>_Text1
 02D8 00910000          lds R16,_Work_counter
 02DC 10910100          lds R17,_Work_counter+1
 02E0 0ADF              xcall _ItoA
 02E2 49C0              xjmp L60
 02E4           L59:
 02E4                   .dbline 125
 02E4           ;   else 
 02E4           ;   {
 02E4                   .dbline 126
 02E4           ;    ItoA(Card_Counter,Text1);
 02E4 20E0              ldi R18,<_Text1
 02E6 30E0              ldi R19,>_Text1
 02E8 00910000          lds R16,_Card_Counter
 02EC 10910100          lds R17,_Card_Counter+1
 02F0 02DF              xcall _ItoA
 02F2                   .dbline 127
 02F2           ;    if((Card_Counter==0)&&(Work>0))
 02F2 20900000          lds R2,_Card_Counter
 02F6 30900100          lds R3,_Card_Counter+1
 02FA 2220              tst R2
 02FC 09F0              breq X28
 02FE 3BC0              xjmp L61
 0300           X28:
 0300 3320              tst R3
 0302 09F0              breq X29
 0304 38C0              xjmp L61
 0306           X29:
 0306           X24:
 0306 80E0              ldi R24,0
 0308 20900000          lds R2,_Work
 030C 8215              cp R24,R2
 030E 08F0              brlo X30
 0310 32C0              xjmp L61
 0312           X30:
 0312           X25:
 0312                   .dbline 128
 0312           ;    {
 0312                   .dbline 130
 0312           ;      //Work=0;
 0312           ;        BitSet(PORTG,4);
 0312 80916500          lds R24,101
 0316 8061              ori R24,16
 0318 80936500          sts 101,R24
 031C                   .dbline 131
 031C           ;        BitSet(PORTG,3);
 031C 80916500          lds R24,101
 0320 8860              ori R24,8
 0322 80936500          sts 101,R24
 0326                   .dbline 132
 0326           ;    cut_pic(0,28,Work_Key[18].XS,Work_Key[18].YS,Work_Key[18].XE,Work_Key[18].YE,Work_Key[18].XS,Work_Key[18].YS);
 0326 E0E0              ldi R30,<_Work_Key+144+2
 0328 F0E0              ldi R31,>_Work_Key+144+2
 032A 2790              elpm R2,Z+
 032C 3690              elpm R3,Z
 032E 3B86              std y+11,R3
 0330 2A86              std y+10,R2
 0332 E0E0              ldi R30,<_Work_Key+144
 0334 F0E0              ldi R31,>_Work_Key+144
 0336 2790              elpm R2,Z+
 0338 3690              elpm R3,Z
 033A 3986              std y+9,R3
 033C 2886              std y+8,R2
 033E E0E0              ldi R30,<_Work_Key+144+6
 0340 F0E0              ldi R31,>_Work_Key+144+6
 0342 2790              elpm R2,Z+
 0344 3690              elpm R3,Z
 0346 3F82              std y+7,R3
 0348 2E82              std y+6,R2
 034A E0E0              ldi R30,<_Work_Key+144+4
 034C F0E0              ldi R31,>_Work_Key+144+4
 034E 2790              elpm R2,Z+
 0350 3690              elpm R3,Z
 0352 3D82              std y+5,R3
 0354 2C82              std y+4,R2
 0356 E0E0              ldi R30,<_Work_Key+144+2
 0358 F0E0              ldi R31,>_Work_Key+144+2
 035A 2790              elpm R2,Z+
 035C 3690              elpm R3,Z
 035E 3B82              std y+3,R3
 0360 2A82              std y+2,R2
 0362 E0E0              ldi R30,<_Work_Key+144
 0364 F0E0              ldi R31,>_Work_Key+144
 0366 2790              elpm R2,Z+
 0368 3690              elpm R3,Z
 036A 3982              std y+1,R3
 036C 2882              std y+0,R2
 036E 2CE1              ldi R18,28
 0370 0027              clr R16
 0372 0E940000          xcall _cut_pic
 0376                   .dbline 133
 0376           ;    }
 0376           L61:
 0376                   .dbline 134
 0376           ;   }
 0376           L60:
 0376                   .dbline 135
 0376           ;   if(WorktimeSet == 1)
 0376 80910000          lds R24,_WorktimeSet
 037A 8130              cpi R24,1
 037C B9F4              brne L73
 037E           X26:
 037E                   .dbline 136
 037E           ;   print_texts(520,12,0,0xC1,2,0,0xDEDB,Text1);
 037E 80E0              ldi R24,<_Text1
 0380 90E0              ldi R25,>_Text1
 0382 9B87              std y+11,R25
 0384 8A87              std y+10,R24
 0386 8BED              ldi R24,57051
 0388 9EED              ldi R25,222
 038A 9987              std y+9,R25
 038C 8887              std y+8,R24
 038E 2224              clr R2
 0390 3324              clr R3
 0392 3F82              std y+7,R3
 0394 2E82              std y+6,R2
 0396 82E0              ldi R24,2
 0398 8C83              std y+4,R24
 039A 81EC              ldi R24,193
 039C 8A83              std y+2,R24
 039E 2882              std y+0,R2
 03A0 2CE0              ldi R18,12
 03A2 30E0              ldi R19,0
 03A4 08E0              ldi R16,520
 03A6 12E0              ldi R17,2
 03A8 0E940000          xcall _print_texts
 03AC           L73:
 03AC                   .dbline -2
 03AC           L47:
 03AC                   .dbline 0 ; func end
 03AC 2C96              adiw R28,12
 03AE B990              ld R11,y+
 03B0 A990              ld R10,y+
 03B2 0895              ret
 03B4                   .dbend
 03B4                   .dbfunc e Dis_pressure _Dis_pressure fV
                        .even
 03B4           _Dis_pressure::
 03B4                   .dbline -1
 03B4                   .dbline 139
 03B4           ; }
 03B4           ; void Dis_pressure(void)
 03B4           ; {
 03B4                   .dbline -2
 03B4           L75:
 03B4                   .dbline 0 ; func end
 03B4 0895              ret
 03B6                   .dbend
 03B6                   .dbfunc e DisFunctionKey _DisFunctionKey fV
 03B6           ;              i -> <dead>
 03B6           ;              y -> R12,R13
 03B6           ;              x -> R10,R11
 03B6           ;             ys -> R22,R23
 03B6           ;             xs -> R20,R21
 03B6           ;            CMD -> R10
 03B6           ;              K -> R14
                        .even
 03B6           _DisFunctionKey::
 03B6 0E940000          xcall push_xgsetF0FC
 03BA A22E              mov R10,R18
 03BC E02E              mov R14,R16
 03BE 2C97              sbiw R28,12
 03C0                   .dbline -1
 03C0                   .dbline 162
 03C0           ;  /* unsigned char pressure;//???
 03C0           ;   unsigned int temperature; //????
 03C0           ;   READ_P_T(&pressure,&temperature);
 03C0           ;   Text1[0]=pressure/100+'0';
 03C0           ;   Text1[1]=(pressure%100)/10+'0';
 03C0           ;   Text1[2]=pressure%10+'0';
 03C0           ;   Text1[3]='\0';
 03C0           ;   print_texts(610,12,0,0xC1,2,0,0xDEDB,Text1);
 03C0           ;   
 03C0           ;   Text1[0]=water/10+'0';
 03C0           ;   Text1[1]=water%10+'0';
 03C0           ;   Text1[2]='K';
 03C0           ;   Text1[3]='P';
 03C0           ;   Text1[4]='a';
 03C0           ;   Text1[5]='\0';*/
 03C0           ;  // if(PressureSet == 1)
 03C0           ;  // print_texts(610,12,0,0xC1,2,0,0xDEDB,Text1);
 03C0           ; }
 03C0           ; 
 03C0           ; 
 03C0           ; 
 03C0           ; void DisFunctionKey(unsigned char K,unsigned char CMD)
 03C0           ; {
 03C0                   .dbline 164
 03C0           ;   unsigned int x,y,xs,ys,i;
 03C0           ;   xs=CMD*100;
 03C0 04E6              ldi R16,100
 03C2 1A2D              mov R17,R10
 03C4 0103              mulsu R16,R17
 03C6 A001              movw R20,R0
 03C8                   .dbline 165
 03C8           ;   ys=Function_Tab[K]*100;
 03C8 80E0              ldi R24,<_Function_Tab
 03CA 90E0              ldi R25,>_Function_Tab
 03CC EE2D              mov R30,R14
 03CE FF27              clr R31
 03D0 E80F              add R30,R24
 03D2 F91F              adc R31,R25
 03D4 1081              ldd R17,z+0
 03D6 0103              mulsu R16,R17
 03D8 B001              movw R22,R0
 03DA                   .dbline 166
 03DA           ;   x=(K/3)*145+30;
 03DA 13E0              ldi R17,3
 03DC 0E2D              mov R16,R14
 03DE 0E940000          xcall div8u
 03E2 81E9              ldi R24,145
 03E4 809F              mul R24,R16
 03E6 C001              movw R24,R0
 03E8 4E96              adiw R24,30
 03EA 5C01              movw R10,R24
 03EC                   .dbline 167
 03EC           ;   y=(K%3)*175+65;
 03EC 13E0              ldi R17,3
 03EE 0E2D              mov R16,R14
 03F0 0E940000          xcall mod8u
 03F4 8FEA              ldi R24,175
 03F6 809F              mul R24,R16
 03F8 C001              movw R24,R0
 03FA 8F5B              subi R24,191  ; offset = 65
 03FC 9F4F              sbci R25,255
 03FE 6C01              movw R12,R24
 0400                   .dbline 168
 0400           ;   cut_pic(1,10,xs,ys,xs+99,ys+99,x,y);
 0400 DB86              std y+11,R13
 0402 CA86              std y+10,R12
 0404 B986              std y+9,R11
 0406 A886              std y+8,R10
 0408 CB01              movw R24,R22
 040A 8D59              subi R24,157  ; offset = 99
 040C 9F4F              sbci R25,255
 040E 9F83              std y+7,R25
 0410 8E83              std y+6,R24
 0412 CA01              movw R24,R20
 0414 8D59              subi R24,157  ; offset = 99
 0416 9F4F              sbci R25,255
 0418 9D83              std y+5,R25
 041A 8C83              std y+4,R24
 041C 7B83              std y+3,R23
 041E 6A83              std y+2,R22
 0420 5983              std y+1,R21
 0422 4883              std y+0,R20
 0424 2AE0              ldi R18,10
 0426 01E0              ldi R16,1
 0428 0E940000          xcall _cut_pic
 042C                   .dbline 169
 042C           ;   xs=(Function_Tab[K]%5)*130;
 042C 80E0              ldi R24,<_Function_Tab
 042E 90E0              ldi R25,>_Function_Tab
 0430 EE2D              mov R30,R14
 0432 FF27              clr R31
 0434 E80F              add R30,R24
 0436 F91F              adc R31,R25
 0438 0081              ldd R16,z+0
 043A 15E0              ldi R17,5
 043C 0E940000          xcall mod8u
 0440 82E8              ldi R24,130
 0442 809F              mul R24,R16
 0444 A001              movw R20,R0
 0446                   .dbline 170
 0446           ;   ys=Language*37;
 0446 10910000          lds R17,_Language
 044A 05E2              ldi R16,37
 044C 0103              mulsu R16,R17
 044E B001              movw R22,R0
 0450                   .dbline 171
 0450           ;   x=(K/3)*145+15;
 0450 13E0              ldi R17,3
 0452 0E2D              mov R16,R14
 0454 0E940000          xcall div8u
 0458 81E9              ldi R24,145
 045A 809F              mul R24,R16
 045C C001              movw R24,R0
 045E 0F96              adiw R24,15
 0460 5C01              movw R10,R24
 0462                   .dbline 172
 0462           ;   y=(K%3)*175+175;
 0462 13E0              ldi R17,3
 0464 0E2D              mov R16,R14
 0466 0E940000          xcall mod8u
 046A 8FEA              ldi R24,175
 046C 809F              mul R24,R16
 046E C001              movw R24,R0
 0470 8155              subi R24,81  ; offset = 175
 0472 9F4F              sbci R25,255
 0474 6C01              movw R12,R24
 0476                   .dbline 173
 0476           ;   cut_pic(1,11,xs,ys,xs+130,ys+36,x,y);
 0476 DB86              std y+11,R13
 0478 CA86              std y+10,R12
 047A B986              std y+9,R11
 047C A886              std y+8,R10
 047E CB01              movw R24,R22
 0480 8496              adiw R24,36
 0482 9F83              std y+7,R25
 0484 8E83              std y+6,R24
 0486 CA01              movw R24,R20
 0488 8E57              subi R24,126  ; offset = 130
 048A 9F4F              sbci R25,255
 048C 9D83              std y+5,R25
 048E 8C83              std y+4,R24
 0490 7B83              std y+3,R23
 0492 6A83              std y+2,R22
 0494 5983              std y+1,R21
 0496 4883              std y+0,R20
 0498 2BE0              ldi R18,11
 049A 01E0              ldi R16,1
 049C 0E940000          xcall _cut_pic
 04A0                   .dbline -2
 04A0           L76:
 04A0                   .dbline 0 ; func end
 04A0 2C96              adiw R28,12
 04A2 0C940000          xjmp pop_xgsetF0FC
 04A6                   .dbsym l i 13 i
 04A6                   .dbsym r y 12 i
 04A6                   .dbsym r x 10 i
 04A6                   .dbsym r ys 22 i
 04A6                   .dbsym r xs 20 i
 04A6                   .dbsym r CMD 10 c
 04A6                   .dbsym r K 14 c
 04A6                   .dbend
 04A6                   .dbfunc e DisWelcome _DisWelcome fV
 04A6           ;              y -> <dead>
 04A6           ;              x -> <dead>
 04A6           ;              i -> R20,R21
                        .even
 04A6           _DisWelcome::
 04A6 4A93              st -y,R20
 04A8 5A93              st -y,R21
 04AA 2C97              sbiw R28,12
 04AC                   .dbline -1
 04AC                   .dbline 176
 04AC           ; }
 04AC           ; void DisWelcome(void)
 04AC           ; {
 04AC                   .dbline 178
 04AC           ;   unsigned int x,y,i;
 04AC           ;   dis_pic(BackSet);//背景图片设置
 04AC 00910000          lds R16,_BackSet
 04B0 0E940000          xcall _dis_pic
 04B4                   .dbline 179
 04B4           ;   for(i=0;i<Function_Count;i++)
 04B4 4427              clr R20
 04B6 5527              clr R21
 04B8 05C0              xjmp L81
 04BA           L78:
 04BA                   .dbline 180
 04BA           ;   {
 04BA                   .dbline 181
 04BA           ;     DisFunctionKey(i,0);
 04BA 2227              clr R18
 04BC 042F              mov R16,R20
 04BE 7BDF              xcall _DisFunctionKey
 04C0                   .dbline 182
 04C0           ;   }
 04C0           L79:
 04C0                   .dbline 179
 04C0 4F5F              subi R20,255  ; offset = 1
 04C2 5F4F              sbci R21,255
 04C4           L81:
 04C4                   .dbline 179
 04C4 20900000          lds R2,_Function_Count
 04C8 3324              clr R3
 04CA 4215              cp R20,R2
 04CC 5305              cpc R21,R3
 04CE A8F3              brlo L78
 04D0           X31:
 04D0                   .dbline 183
 04D0           ;   cut_pic(1,10,0,400,0+99,400+99,175,240);// ???????汛????完??
 04D0 80EF              ldi R24,240
 04D2 90E0              ldi R25,0
 04D4 9B87              std y+11,R25
 04D6 8A87              std y+10,R24
 04D8 8FEA              ldi R24,175
 04DA 9987              std y+9,R25
 04DC 8887              std y+8,R24
 04DE 83EF              ldi R24,499
 04E0 91E0              ldi R25,1
 04E2 9F83              std y+7,R25
 04E4 8E83              std y+6,R24
 04E6 83E6              ldi R24,99
 04E8 90E0              ldi R25,0
 04EA 9D83              std y+5,R25
 04EC 8C83              std y+4,R24
 04EE 80E9              ldi R24,400
 04F0 91E0              ldi R25,1
 04F2 9B83              std y+3,R25
 04F4 8A83              std y+2,R24
 04F6 2224              clr R2
 04F8 3982              std y+1,R3
 04FA 2882              std y+0,R2
 04FC 2AE0              ldi R18,10
 04FE 01E0              ldi R16,1
 0500 0E940000          xcall _cut_pic
 0504                   .dbline 184
 0504           ;   if(ClockSet==TRUE)
 0504 80910000          lds R24,_ClockSet
 0508 8130              cpi R24,1
 050A 89F4              brne L82
 050C           X32:
 050C                   .dbline 185
 050C           ;   clock_on(ClockSet,3,0,700,10);
 050C 8AE0              ldi R24,10
 050E 90E0              ldi R25,0
 0510 9D83              std y+5,R25
 0512 8C83              std y+4,R24
 0514 8CEB              ldi R24,700
 0516 92E0              ldi R25,2
 0518 9B83              std y+3,R25
 051A 8A83              std y+2,R24
 051C 2224              clr R2
 051E 3324              clr R3
 0520 3982              std y+1,R3
 0522 2882              std y+0,R2
 0524 23E0              ldi R18,3
 0526 00910000          lds R16,_ClockSet
 052A 0E940000          xcall _clock_on
 052E           L82:
 052E                   .dbline -2
 052E           L77:
 052E                   .dbline 0 ; func end
 052E 2C96              adiw R28,12
 0530 5991              ld R21,y+
 0532 4991              ld R20,y+
 0534 0895              ret
 0536                   .dbsym l y 13 i
 0536                   .dbsym l x 13 i
 0536                   .dbsym r i 20 i
 0536                   .dbend
 0536                   .dbfunc e DisIntensity _DisIntensity fV
 0536           ;             xe -> R22,R23
 0536           ;             xs -> R20,R21
 0536           ;              x -> R10,R11
 0536           ;             ID -> R10
                        .even
 0536           _DisIntensity::
 0536 0E940000          xcall push_xgsetF00C
 053A A02E              mov R10,R16
 053C 2C97              sbiw R28,12
 053E                   .dbline -1
 053E                   .dbline 188
 053E           ; }
 053E           ; void DisIntensity(unsigned char ID)
 053E           ; {
 053E                   .dbline 191
 053E           ;   unsigned int x,xs,xe;
 053E           ;   //xs=Intensity[ID];
 053E           ;   xs=xs*50;
 053E 02E3              ldi R16,50
 0540 10E0              ldi R17,0
 0542 9A01              movw R18,R20
 0544 0E940000          xcall empy16s
 0548 A801              movw R20,R16
 054A                   .dbline 192
 054A           ;   xe=xs+49;
 054A BA01              movw R22,R20
 054C 6F5C              subi R22,207  ; offset = 49
 054E 7F4F              sbci R23,255
 0550                   .dbline 193
 0550           ;   x=ID;
 0550 BB24              clr R11
 0552                   .dbline 194
 0552           ;   x=x*112;
 0552 00E7              ldi R16,112
 0554 10E0              ldi R17,0
 0556 9501              movw R18,R10
 0558 0E940000          xcall empy16s
 055C 5801              movw R10,R16
 055E                   .dbline 195
 055E           ;   x=x+44;
 055E C501              movw R24,R10
 0560 8C96              adiw R24,44
 0562 5C01              movw R10,R24
 0564                   .dbline 196
 0564           ;   cut_pic(0,32,xs,0,xe,289,x,50);
 0564 82E3              ldi R24,50
 0566 90E0              ldi R25,0
 0568 9B87              std y+11,R25
 056A 8A87              std y+10,R24
 056C B986              std y+9,R11
 056E A886              std y+8,R10
 0570 81E2              ldi R24,289
 0572 91E0              ldi R25,1
 0574 9F83              std y+7,R25
 0576 8E83              std y+6,R24
 0578 7D83              std y+5,R23
 057A 6C83              std y+4,R22
 057C 2224              clr R2
 057E 3324              clr R3
 0580 3B82              std y+3,R3
 0582 2A82              std y+2,R2
 0584 5983              std y+1,R21
 0586 4883              std y+0,R20
 0588 20E2              ldi R18,32
 058A 0027              clr R16
 058C 0E940000          xcall _cut_pic
 0590                   .dbline -2
 0590           L84:
 0590                   .dbline 0 ; func end
 0590 2C96              adiw R28,12
 0592 0C940000          xjmp pop_xgsetF00C
 0596                   .dbsym r xe 22 i
 0596                   .dbsym r xs 20 i
 0596                   .dbsym r x 10 i
 0596                   .dbsym r ID 10 c
 0596                   .dbend
 0596                   .dbfunc e HandpieceSet _HandpieceSet fV
                        .even
 0596           _HandpieceSet::
 0596                   .dbline -1
 0596                   .dbline 200
 0596           ;   //cut_pic(0,32,Intensity[ID]*50,0,49+Intensity[ID]*50,289,44+ID*112,50);
 0596           ; }
 0596           ; void HandpieceSet(void)//射频选通  负压选通 H
 0596           ; {
 0596                   .dbline 202
 0596           ;   //cut_pic(0,28+Intensity[8],0,390,260,599,0,390);
 0596           ;   PORTB|=0x3C; 
 0596 88B3              in R24,0x18
 0598 8C63              ori R24,60
 059A 88BB              out 0x18,R24
 059C                   .dbline 203
 059C           ;   PORTB&=~(0x04<<Intensity[8]);
 059C 10910800          lds R17,_Intensity+8
 05A0 04E0              ldi R16,4
 05A2 0E940000          xcall lsl8
 05A6 202E              mov R2,R16
 05A8 2094              com R2
 05AA 38B2              in R3,0x18
 05AC 3220              and R3,R2
 05AE 38BA              out 0x18,R3
 05B0                   .dbline 204
 05B0           ;   PORTC|=0xF0; 
 05B0 85B3              in R24,0x15
 05B2 806F              ori R24,240
 05B4 85BB              out 0x15,R24
 05B6                   .dbline 205
 05B6           ;   PORTC&=~(0x10<<Intensity[8]);
 05B6 10910800          lds R17,_Intensity+8
 05BA 00E1              ldi R16,16
 05BC 0E940000          xcall lsl8
 05C0 202E              mov R2,R16
 05C2 2094              com R2
 05C4 35B2              in R3,0x15
 05C6 3220              and R3,R2
 05C8 35BA              out 0x15,R3
 05CA                   .dbline -2
 05CA           L85:
 05CA                   .dbline 0 ; func end
 05CA 0895              ret
 05CC                   .dbend
 05CC                   .dbfunc e ModeSet _ModeSet fV
 05CC           ;           buff -> y+0
 05CC           ;              i -> R16
                        .even
 05CC           _ModeSet::
 05CC 2997              sbiw R28,9
 05CE                   .dbline -1
 05CE                   .dbline 208
 05CE           ; }
 05CE           ; void ModeSet(void)//电机转向 H
 05CE           ; {
 05CE                   .dbline 211
 05CE           ;   unsigned char buff[9];
 05CE           ;   unsigned char i;
 05CE           ;   PORTE|=0x7C;
 05CE 83B1              in R24,0x3
 05D0 8C67              ori R24,124
 05D2 83B9              out 0x3,R24
 05D4                   .dbline 212
 05D4           ;   if(Intensity[7]==0) {PORTE&=0xCB;for(i = 0; i < 8; i++){buff[i]=0;}buff[1]=1;}
 05D4 20900700          lds R2,_Intensity+7
 05D8 2220              tst R2
 05DA 91F4              brne L89
 05DC           X33:
 05DC                   .dbline 212
 05DC                   .dbline 212
 05DC 83B1              in R24,0x3
 05DE 8B7C              andi R24,203
 05E0 83B9              out 0x3,R24
 05E2                   .dbline 212
 05E2 0027              clr R16
 05E4 08C0              xjmp L95
 05E6           L92:
 05E6                   .dbline 212
 05E6                   .dbline 212
 05E6 CE01              movw R24,R28
 05E8 E02F              mov R30,R16
 05EA FF27              clr R31
 05EC E80F              add R30,R24
 05EE F91F              adc R31,R25
 05F0 2224              clr R2
 05F2 2082              std z+0,R2
 05F4                   .dbline 212
 05F4           L93:
 05F4                   .dbline 212
 05F4 0395              inc R16
 05F6           L95:
 05F6                   .dbline 212
 05F6 0830              cpi R16,8
 05F8 B0F3              brlo L92
 05FA           X34:
 05FA                   .dbline 212
 05FA 81E0              ldi R24,1
 05FC 8983              std y+1,R24
 05FE                   .dbline 212
 05FE 41C0              xjmp L90
 0600           L89:
 0600                   .dbline 213
 0600           ;   else if(Intensity[7]==1) {PORTE&=0x97;for(i = 0; i < 8; i++){buff[i]=0;}buff[3]=1;}
 0600 80910700          lds R24,_Intensity+7
 0604 8130              cpi R24,1
 0606 91F4              brne L97
 0608           X35:
 0608                   .dbline 213
 0608                   .dbline 213
 0608 83B1              in R24,0x3
 060A 8779              andi R24,151
 060C 83B9              out 0x3,R24
 060E                   .dbline 213
 060E 0027              clr R16
 0610 08C0              xjmp L103
 0612           L100:
 0612                   .dbline 213
 0612                   .dbline 213
 0612 CE01              movw R24,R28
 0614 E02F              mov R30,R16
 0616 FF27              clr R31
 0618 E80F              add R30,R24
 061A F91F              adc R31,R25
 061C 2224              clr R2
 061E 2082              std z+0,R2
 0620                   .dbline 213
 0620           L101:
 0620                   .dbline 213
 0620 0395              inc R16
 0622           L103:
 0622                   .dbline 213
 0622 0830              cpi R16,8
 0624 B0F3              brlo L100
 0626           X36:
 0626                   .dbline 213
 0626 81E0              ldi R24,1
 0628 8B83              std y+3,R24
 062A                   .dbline 213
 062A 2BC0              xjmp L98
 062C           L97:
 062C                   .dbline 214
 062C           ;   else if(Intensity[7]==2) {PORTE&=0x9B;for(i = 0; i < 8; i++){buff[i]=0;}buff[5]=1;}
 062C 80910700          lds R24,_Intensity+7
 0630 8230              cpi R24,2
 0632 91F4              brne L105
 0634           X37:
 0634                   .dbline 214
 0634                   .dbline 214
 0634 83B1              in R24,0x3
 0636 8B79              andi R24,155
 0638 83B9              out 0x3,R24
 063A                   .dbline 214
 063A 0027              clr R16
 063C 08C0              xjmp L111
 063E           L108:
 063E                   .dbline 214
 063E                   .dbline 214
 063E CE01              movw R24,R28
 0640 E02F              mov R30,R16
 0642 FF27              clr R31
 0644 E80F              add R30,R24
 0646 F91F              adc R31,R25
 0648 2224              clr R2
 064A 2082              std z+0,R2
 064C                   .dbline 214
 064C           L109:
 064C                   .dbline 214
 064C 0395              inc R16
 064E           L111:
 064E                   .dbline 214
 064E 0830              cpi R16,8
 0650 B0F3              brlo L108
 0652           X38:
 0652                   .dbline 214
 0652 81E0              ldi R24,1
 0654 8D83              std y+5,R24
 0656                   .dbline 214
 0656 15C0              xjmp L106
 0658           L105:
 0658                   .dbline 215
 0658           ;   else if(Intensity[7]==3) {PORTE&=0xC7;for(i = 0; i < 8; i++){buff[i]=0;}buff[7]=1;}
 0658 80910700          lds R24,_Intensity+7
 065C 8330              cpi R24,3
 065E 89F4              brne L113
 0660           X39:
 0660                   .dbline 215
 0660                   .dbline 215
 0660 83B1              in R24,0x3
 0662 877C              andi R24,199
 0664 83B9              out 0x3,R24
 0666                   .dbline 215
 0666 0027              clr R16
 0668 08C0              xjmp L119
 066A           L116:
 066A                   .dbline 215
 066A                   .dbline 215
 066A CE01              movw R24,R28
 066C E02F              mov R30,R16
 066E FF27              clr R31
 0670 E80F              add R30,R24
 0672 F91F              adc R31,R25
 0674 2224              clr R2
 0676 2082              std z+0,R2
 0678                   .dbline 215
 0678           L117:
 0678                   .dbline 215
 0678 0395              inc R16
 067A           L119:
 067A                   .dbline 215
 067A 0830              cpi R16,8
 067C B0F3              brlo L116
 067E           X40:
 067E                   .dbline 215
 067E 81E0              ldi R24,1
 0680 8F83              std y+7,R24
 0682                   .dbline 215
 0682           L113:
 0682           L106:
 0682           L98:
 0682           L90:
 0682                   .dbline -2
 0682           L88:
 0682                   .dbline 0 ; func end
 0682 2996              adiw R28,9
 0684 0895              ret
 0686                   .dbsym l buff 0 A[9:9]c
 0686                   .dbsym r i 16 c
 0686                   .dbend
 0686                   .dbfunc e IntensitySet _IntensitySet fV
                        .even
 0686           _IntensitySet::
 0686                   .dbline -1
 0686                   .dbline 223
 0686           ; 
 0686           ;  // DwinWriteWord(ADDR_BOOTINGMOTO_TOWARD_LEFTDATA, buff[0]);//迪文屏通信函数
 0686           ;  // DwinWriteWord(ADDR_BOOTINGMOTO_TOWARD_RIGHTDATA, buff[1]);//迪文屏通信函数
 0686           ;   //DwinWriteWord(ADDR_BOOTINGMOTO_TOWARD_INDATA, buff[2]);//迪文屏通信函数
 0686           ;  // DwinWriteWord(ADDR_BOOTINGMOTO_TOWARD_OUTDATA, buff[3]);//迪文屏通信函数
 0686           ; }
 0686           ; void IntensitySet(void)//负压等级 H
 0686           ; {
 0686                   .dbline 224
 0686           ;   PORTC|=0x0F;
 0686 85B3              in R24,0x15
 0688 8F60              ori R24,15
 068A 85BB              out 0x15,R24
 068C                   .dbline 226
 068C           ;   //PORTC&=~(10-Intensity[4]);
 068C           ;   switch(Intensity[4])
 068C 00910400          lds R16,_Intensity+4
 0690 1127              clr R17
 0692 0030              cpi R16,0
 0694 0107              cpc R16,R17
 0696 49F1              breq L126
 0698           X41:
 0698 0130              cpi R16,1
 069A E0E0              ldi R30,0
 069C 1E07              cpc R17,R30
 069E 49F1              breq L127
 06A0           X42:
 06A0 0230              cpi R16,2
 06A2 E0E0              ldi R30,0
 06A4 1E07              cpc R17,R30
 06A6 49F1              breq L128
 06A8           X43:
 06A8 0330              cpi R16,3
 06AA E0E0              ldi R30,0
 06AC 1E07              cpc R17,R30
 06AE 49F1              breq L129
 06B0           X44:
 06B0 0430              cpi R16,4
 06B2 E0E0              ldi R30,0
 06B4 1E07              cpc R17,R30
 06B6 49F1              breq L130
 06B8           X45:
 06B8 0530              cpi R16,5
 06BA E0E0              ldi R30,0
 06BC 1E07              cpc R17,R30
 06BE 49F1              breq L131
 06C0           X46:
 06C0 0630              cpi R16,6
 06C2 E0E0              ldi R30,0
 06C4 1E07              cpc R17,R30
 06C6 49F1              breq L132
 06C8           X47:
 06C8 0730              cpi R16,7
 06CA E0E0              ldi R30,0
 06CC 1E07              cpc R17,R30
 06CE 39F1              breq L133
 06D0           X48:
 06D0 0830              cpi R16,8
 06D2 E0E0              ldi R30,0
 06D4 1E07              cpc R17,R30
 06D6 39F1              breq L134
 06D8           X49:
 06D8 0930              cpi R16,9
 06DA E0E0              ldi R30,0
 06DC 1E07              cpc R17,R30
 06DE 29F1              breq L135
 06E0           X50:
 06E0 0A30              cpi R16,10
 06E2 E0E0              ldi R30,0
 06E4 1E07              cpc R17,R30
 06E6 19F1              breq L136
 06E8           X51:
 06E8 25C0              xjmp L123
 06EA           L126:
 06EA                   .dbline 228
 06EA           ;   {
 06EA           ;    case 0:  PORTC&=~15; break;
 06EA 85B3              in R24,0x15
 06EC 807F              andi R24,240
 06EE 85BB              out 0x15,R24
 06F0                   .dbline 228
 06F0 21C0              xjmp L123
 06F2           L127:
 06F2                   .dbline 229
 06F2           ;    case 1:  PORTC&=~12; break;
 06F2 85B3              in R24,0x15
 06F4 837F              andi R24,243
 06F6 85BB              out 0x15,R24
 06F8                   .dbline 229
 06F8 1DC0              xjmp L123
 06FA           L128:
 06FA                   .dbline 230
 06FA           ;    case 2:  PORTC&=~9; break;
 06FA 85B3              in R24,0x15
 06FC 867F              andi R24,246
 06FE 85BB              out 0x15,R24
 0700                   .dbline 230
 0700 19C0              xjmp L123
 0702           L129:
 0702                   .dbline 231
 0702           ;    case 3:  PORTC&=~7;  break;
 0702 85B3              in R24,0x15
 0704 887F              andi R24,248
 0706 85BB              out 0x15,R24
 0708                   .dbline 231
 0708 15C0              xjmp L123
 070A           L130:
 070A                   .dbline 232
 070A           ;    case 4:  PORTC&=~6;  break;
 070A 85B3              in R24,0x15
 070C 897F              andi R24,249
 070E 85BB              out 0x15,R24
 0710                   .dbline 232
 0710 11C0              xjmp L123
 0712           L131:
 0712                   .dbline 233
 0712           ;    case 5:  PORTC&=~5;  break;
 0712 85B3              in R24,0x15
 0714 8A7F              andi R24,250
 0716 85BB              out 0x15,R24
 0718                   .dbline 233
 0718 0DC0              xjmp L123
 071A           L132:
 071A                   .dbline 234
 071A           ;    case 6:  PORTC&=~4;  break;
 071A AA98              cbi 0x15,2
 071C                   .dbline 234
 071C 0BC0              xjmp L123
 071E           L133:
 071E                   .dbline 235
 071E           ;    case 7:  PORTC&=~3;  break;
 071E 85B3              in R24,0x15
 0720 8C7F              andi R24,252
 0722 85BB              out 0x15,R24
 0724                   .dbline 235
 0724 07C0              xjmp L123
 0726           L134:
 0726                   .dbline 236
 0726           ;    case 8:  PORTC&=~2;  break;
 0726 A998              cbi 0x15,1
 0728                   .dbline 236
 0728 05C0              xjmp L123
 072A           L135:
 072A                   .dbline 237
 072A           ;    case 9:  PORTC&=~1;  break;
 072A A898              cbi 0x15,0
 072C                   .dbline 237
 072C 03C0              xjmp L123
 072E           L136:
 072E                   .dbline 238
 072E           ;    case 10: PORTC&=~0;  break;
 072E 85B3              in R24,0x15
 0730 8F7F              andi R24,255
 0732 85BB              out 0x15,R24
 0734                   .dbline 238
 0734                   .dbline 239
 0734           ;    default: break;
 0734           L123:
 0734                   .dbline -2
 0734           L121:
 0734                   .dbline 0 ; func end
 0734 0895              ret
 0736                   .dbend
 0736                   .dbfunc e DisMode _DisMode fV
                        .even
 0736           _DisMode::
 0736                   .dbline -1
 0736                   .dbline 318
 0736           ;   }
 0736           ; }
 0736           ; /*void DisMode(void)
 0736           ; {
 0736           ;   static unsigned int i=0;
 0736           ;   unsigned int xs,ys,xe,ye;
 0736           ;   if(DisPage!=WORKPAGE) return;
 0736           ;   if(Intensity[8]>1) return;
 0736           ;   if(Intensity[7]==0)
 0736           ;   {
 0736           ;    if(i>0) i-=1;
 0736           ;    else i=5;
 0736           ;    xs=i%3;
 0736           ;    xs=xs*240;
 0736           ;    ys=i/3;
 0736           ;    ys=ys*180;
 0736           ;    xe=i%3;
 0736           ;    xe=xe*240;
 0736           ;    xe=xe+239; 
 0736           ;    ye=i/3;
 0736           ;    ye=ye*180;
 0736           ;    ye=ye+179;
 0736           ;    cut_pic(0,33,xs,ys,xe,ye,280,395);
 0736           ;    //cut_pic(0,33,(i%3)*240,i/3*180,239+(i%3)*240,179+i/3*180,280,395);
 0736           ;   }
 0736           ;   else if(Intensity[7]==1)
 0736           ;   {
 0736           ;    if(i<5) i+=1;
 0736           ;    else i=0;
 0736           ;    xs=i%3;
 0736           ;    xs=xs*240;
 0736           ;    ys=i/3;
 0736           ;    ys=ys*180;
 0736           ;    xe=i%3;
 0736           ;    xe=xe*240;
 0736           ;    xe=xe+239; 
 0736           ;    ye=i/3;
 0736           ;    ye=ye*180;
 0736           ;    ye=ye+179;
 0736           ;    cut_pic(0,33,xs,ys,xe,ye,280,395);
 0736           ;    //cut_pic(0,33,(i%3)*240,i/3*180,239+(i%3)*240,179+i/3*180,280,395);
 0736           ;   }
 0736           ;   else if(Intensity[7]==2)
 0736           ;   {
 0736           ;    if(i>0) i-=1;
 0736           ;    else i=5;
 0736           ;    xs=i%3;
 0736           ;    xs=xs*240;
 0736           ;    ys=i/3;
 0736           ;    ys=ys*180;
 0736           ;    xe=i%3;
 0736           ;    xe=xe*240;
 0736           ;    xe=xe+239; 
 0736           ;    ye=i/3;
 0736           ;    ye=ye*180;
 0736           ;    ye=ye+179;
 0736           ;    cut_pic(0,34,xs,ys,xe,ye,280,395);
 0736           ;    //cut_pic(0,34,(i%3)*240,i/3*180,239+(i%3)*240,179+i/3*180,280,395);
 0736           ;   }
 0736           ;   else if(Intensity[7]==3)
 0736           ;   {
 0736           ;    if(i<5) i+=1;
 0736           ;    else i=0;
 0736           ;    xs=i%3;
 0736           ;    xs=xs*240;
 0736           ;    ys=i/3;
 0736           ;    ys=ys*180;
 0736           ;    xe=i%3;
 0736           ;    xe=xe*240;
 0736           ;    xe=xe+239; 
 0736           ;    ye=i/3;
 0736           ;    ye=ye*180;
 0736           ;    ye=ye+179;
 0736           ;    cut_pic(0,34,xs,ys,xe,ye,280,395);
 0736           ;    //cut_pic(0,34,(i%3)*240,i/3*180,239+(i%3)*240,179+i/3*180,280,395);
 0736           ;   }
 0736           ; }*/
 0736           ; void DisMode(void)//电机转向动画H
 0736           ; {
 0736                   .dbline -2
 0736           L137:
 0736                   .dbline 0 ; func end
 0736 0895              ret
 0738                   .dbend
 0738                   .dbfunc e DisWork _DisWork fV
 0738           ;              i -> <dead>
                        .even
 0738           _DisWork::
 0738                   .dbline -1
 0738                   .dbline 458
 0738           ;   /*
 0738           ;   static unsigned char i=0;
 0738           ;   if(DisPage!=WORKPAGE) return;
 0738           ;   if(Intensity[8]>1) return;
 0738           ;   if(Intensity[7]==0)
 0738           ;   {
 0738           ;    if(i==0)
 0738           ;    {
 0738           ;      cut_pic(0,33,0,0,239,179,280,395);
 0738           ;      i=5;
 0738           ;    }
 0738           ;    else if(i==1)
 0738           ;    {
 0738           ;      cut_pic(0,33,240,0,479,179,280,395);
 0738           ;      i=0;
 0738           ;    }
 0738           ;    else if(i==2)
 0738           ;    {
 0738           ;      cut_pic(0,33,480,0,719,179,280,395);
 0738           ;      i=1;
 0738           ;    }
 0738           ;    else if(i==3)
 0738           ;    {
 0738           ;      cut_pic(0,33,0,180,239,359,280,395);
 0738           ;      i=2;
 0738           ;    }
 0738           ;    else if(i==4)
 0738           ;    {
 0738           ;      cut_pic(0,33,240,180,479,359,280,395);
 0738           ;      i=3;
 0738           ;    }
 0738           ;    else if(i==5)
 0738           ;    {
 0738           ;      cut_pic(0,33,480,180,719,359,280,395);
 0738           ;      i=4;
 0738           ;    }
 0738           ;   }
 0738           ;   else if(Intensity[7]==1)
 0738           ;   {
 0738           ;    if(i==0)
 0738           ;    {
 0738           ;      cut_pic(0,33,0,0,239,179,280,395);
 0738           ;      i=1;
 0738           ;    }
 0738           ;    else if(i==1)
 0738           ;    {
 0738           ;      cut_pic(0,33,240,0,479,179,280,395);
 0738           ;      i=2;
 0738           ;    }
 0738           ;    else if(i==2)
 0738           ;    {
 0738           ;      cut_pic(0,33,480,0,719,179,280,395);
 0738           ;      i=3;
 0738           ;    }
 0738           ;    else if(i==3)
 0738           ;    {
 0738           ;      cut_pic(0,33,0,180,239,359,280,395);
 0738           ;      i=4;
 0738           ;    }
 0738           ;    else if(i==4)
 0738           ;    {
 0738           ;      cut_pic(0,33,240,180,479,359,280,395);
 0738           ;      i=5;
 0738           ;    }
 0738           ;    else if(i==5)
 0738           ;    {
 0738           ;      cut_pic(0,33,480,180,719,359,280,395);
 0738           ;      i=0;
 0738           ;    }
 0738           ;   }
 0738           ;   else if(Intensity[7]==2)
 0738           ;   {
 0738           ;    if(i==0)
 0738           ;    {
 0738           ;      cut_pic(0,34,0,0,239,179,280,395);
 0738           ;      i=5;
 0738           ;    }
 0738           ;    else if(i==1)
 0738           ;    {
 0738           ;      cut_pic(0,34,240,0,479,179,280,395);
 0738           ;      i=0;
 0738           ;    }
 0738           ;    else if(i==2)
 0738           ;    {
 0738           ;      cut_pic(0,34,480,0,719,179,280,395);
 0738           ;      i=1;
 0738           ;    }
 0738           ;    else if(i==3)
 0738           ;    {
 0738           ;      cut_pic(0,34,0,180,239,359,280,395);
 0738           ;      i=2;
 0738           ;    }
 0738           ;    else if(i==4)
 0738           ;    {
 0738           ;      cut_pic(0,34,240,180,479,359,280,395);
 0738           ;      i=3;
 0738           ;    }
 0738           ;    else if(i==5)
 0738           ;    {
 0738           ;      cut_pic(0,34,480,180,719,359,280,395);
 0738           ;      i=4;
 0738           ;    }
 0738           ;   }
 0738           ;   else if(Intensity[7]==3)
 0738           ;   {
 0738           ;    if(i==0)
 0738           ;    {
 0738           ;      cut_pic(0,34,0,0,239,179,280,395);
 0738           ;      i=1;
 0738           ;    }
 0738           ;    else if(i==1)
 0738           ;    {
 0738           ;      cut_pic(0,34,240,0,479,179,280,395);
 0738           ;      i=2;
 0738           ;    }
 0738           ;    else if(i==2)
 0738           ;    {
 0738           ;      cut_pic(0,34,480,0,719,179,280,395);
 0738           ;      i=3;
 0738           ;    }
 0738           ;    else if(i==3)
 0738           ;    {
 0738           ;      cut_pic(0,34,0,180,239,359,280,395);
 0738           ;      i=4;
 0738           ;    }
 0738           ;    else if(i==4)
 0738           ;    {
 0738           ;      cut_pic(0,34,240,180,479,359,280,395);
 0738           ;      i=5;
 0738           ;    }
 0738           ;    else if(i==5)
 0738           ;    {
 0738           ;      cut_pic(0,34,480,180,719,359,280,395);
 0738           ;      i=0;
 0738           ;    }
 0738           ;   }
 0738           ;   */
 0738           ; }
 0738           ; void DisWork(void)
 0738           ; {
 0738                   .dbline 470
 0738           ;    unsigned char i;
 0738           ;    //EEPROMReadBytes(IntensityAddr+Function_Tab[Function_Ptr]*9,Intensity,9);
 0738           ;    //dis_pic(28);
 0738           ;    //cut_pic(0,107,0,Language*30,761,29+Language*30,22,344);
 0738           ;    /*
 0738           ;    for(i=0;i<9;i++)//显示参数等级
 0738           ;    {
 0738           ;      if(Intensity[i]>Intensity_Max[i]) Intensity[i]=Intensity_Tab[Function_Tab[Function_Ptr]][i];
 0738           ;      if(i<7) DisIntensity(i);
 0738           ;    }*/
 0738           ;    //EEPROMReadBytes(CounterAddr+hand[Intensity[8]]*4,&Total_counter,4);
 0738           ;    HandpieceSet();//射频选通 负压选通
 0738 2EDF              xcall _HandpieceSet
 073A                   .dbline 471
 073A           ;    IntensitySet();//负压等级
 073A                   .dbline -2
 073A           L138:
 073A                   .dbline 0 ; func end
 073A A5CF              xjmp _IntensitySet
 073C                   .dbsym l i 1 c
 073C                   .dbend
 073C                   .dbfunc e DisMV _DisMV fV
                        .even
 073C           _DisMV::
 073C                   .dbline -1
 073C                   .dbline 478
 073C           ;    //ModeSet();//电机转向设置
 073C           ;    //DisCount();//显示计时
 073C           ;    //Dis_pressure();
 073C           ;    //cut_pic(0,28+Intensity[7],523,388,588,788,523,388);
 073C           ; }
 073C           ; void DisMV(void)
 073C           ; {
 073C                   .dbline -2
 073C           L139:
 073C                   .dbline 0 ; func end
 073C 0895              ret
 073E                   .dbend
 073E                   .dbfunc e GetKeyID _GetKeyID fc
 073E                   .dbstruct 0 8 KEY
 073E                   .dbfield 0 XS i
 073E                   .dbfield 2 YS i
 073E                   .dbfield 4 XE i
 073E                   .dbfield 6 YE i
 073E                   .dbend
 073E           ;             ID -> R10
 073E           ;            Len -> R18
 073E           ;              P -> R16,R17
                        .even
 073E           _GetKeyID::
 073E AA92              st -y,R10
 0740                   .dbline -1
 0740                   .dbline 514
 0740           ;   /*
 0740           ;   static unsigned char pic=35;
 0740           ;   if(DisPage==WELCOMEPAGE)
 0740           ;   {
 0740           ;     if(MV<50) MV++;
 0740           ;       else 
 0740           ;       {
 0740           ;         DisPage=MVPAGE;
 0740           ;       }
 0740           ;   }
 0740           ;   if(MC==1)
 0740           ;       {
 0740           ;         DisWelcome();
 0740           ;       DisPage=WELCOMEPAGE;
 0740           ;         MV=0;
 0740           ;         MC=0;
 0740           ;         return;
 0740           ;   }
 0740           ;   if(DisPage!=MVPAGE) return;
 0740           ;   if(pic<106) pic++;
 0740           ;   else pic=36;
 0740           ;   dis_pic(pic);
 0740           ;   */
 0740           ; }
 0740           ; 
 0740           ; 
 0740           ; 
 0740           ; 
 0740           ; 
 0740           ; 
 0740           ; 
 0740           ; 
 0740           ; 
 0740           ; 
 0740           ; unsigned char GetKeyID(const struct KEY *P,unsigned char Len)
 0740           ; {
 0740                   .dbline 516
 0740           ;   unsigned char ID;
 0740           ;   for(ID=0;ID<Len;ID++)
 0740 AA24              clr R10
 0742 28C0              xjmp L144
 0744           L141:
 0744                   .dbline 517
 0744           ;   {
 0744                   .dbline 518
 0744           ;    if((Touch_X>P->XS)&&(Touch_X<P->XE))
 0744 40900000          lds R4,_Touch_X
 0748 50900100          lds R5,_Touch_X+1
 074C F801              movw R30,R16
 074E 2790              elpm R2,Z+
 0750 3690              elpm R3,Z
 0752 2414              cp R2,R4
 0754 3504              cpc R3,R5
 0756 D8F4              brsh L145
 0758           X52:
 0758 F801              movw R30,R16
 075A 3496              adiw R30,4
 075C 2790              elpm R2,Z+
 075E 3690              elpm R3,Z
 0760 4214              cp R4,R2
 0762 5304              cpc R5,R3
 0764 A0F4              brsh L145
 0766           X53:
 0766                   .dbline 519
 0766           ;    {
 0766                   .dbline 520
 0766           ;      if((Touch_Y>P->YS)&&(Touch_Y<P->YE))
 0766 40900000          lds R4,_Touch_Y
 076A 50900100          lds R5,_Touch_Y+1
 076E F801              movw R30,R16
 0770 3296              adiw R30,2
 0772 2790              elpm R2,Z+
 0774 3690              elpm R3,Z
 0776 2414              cp R2,R4
 0778 3504              cpc R3,R5
 077A 48F4              brsh L147
 077C           X54:
 077C F801              movw R30,R16
 077E 3696              adiw R30,6
 0780 2790              elpm R2,Z+
 0782 3690              elpm R3,Z
 0784 4214              cp R4,R2
 0786 5304              cpc R5,R3
 0788 10F4              brsh L147
 078A           X55:
 078A                   .dbline 521
 078A           ;        {
 078A                   .dbline 522
 078A           ;          return ID;
 078A 0A2D              mov R16,R10
 078C 07C0              xjmp L140
 078E           L147:
 078E                   .dbline 524
 078E           ;        }
 078E           ;    }
 078E           L145:
 078E                   .dbline 525
 078E           ;    P++;
 078E 085F              subi R16,248  ; offset = 8
 0790 1F4F              sbci R17,255
 0792                   .dbline 526
 0792           ;   }
 0792           L142:
 0792                   .dbline 516
 0792 A394              inc R10
 0794           L144:
 0794                   .dbline 516
 0794 A216              cp R10,R18
 0796 08F4              brsh X57
 0798 D5CF              xjmp L141
 079A           X57:
 079A           X56:
 079A                   .dbline 527
 079A           ;   return 255;
 079A 0FEF              ldi R16,255
 079C                   .dbline -2
 079C           L140:
 079C                   .dbline 0 ; func end
 079C A990              ld R10,y+
 079E 0895              ret
 07A0                   .dbsym r ID 10 c
 07A0                   .dbsym r Len 18 c
 07A0                   .dbsym r P 16 pkS[KEY]
 07A0                   .dbend
 07A0                   .dbfunc e MainKeyDown _MainKeyDown fV
                        .even
 07A0           _MainKeyDown::
 07A0 2C97              sbiw R28,12
 07A2                   .dbline -1
 07A2                   .dbline 530
 07A2           ; }
 07A2           ; void MainKeyDown(void)
 07A2           ; {
 07A2                   .dbline 531
 07A2           ;   if(DisPage!=WELCOMEPAGE) return;
 07A2 20900000          lds R2,_DisPage
 07A6 2220              tst R2
 07A8 09F0              breq L150
 07AA           X58:
 07AA                   .dbline 531
 07AA 5AC0              xjmp L149
 07AC           L150:
 07AC                   .dbline 532
 07AC           ;   KeyID=GetKeyID(Main_Key,6);
 07AC 26E0              ldi R18,6
 07AE 00E0              ldi R16,<_Main_Key
 07B0 10E0              ldi R17,>_Main_Key
 07B2 C5DF              xcall _GetKeyID
 07B4 00930000          sts _KeyID,R16
 07B8                   .dbline 533
 07B8           ;   if(KeyID<Function_Count)//????踩?????完??
 07B8 20900000          lds R2,_Function_Count
 07BC 302E              mov R3,R16
 07BE 0215              cp R16,R2
 07C0 38F4              brsh L152
 07C2           X59:
 07C2                   .dbline 534
 07C2           ;   {
 07C2                   .dbline 535
 07C2           ;     DisFunctionKey(KeyID,1);
 07C2 21E0              ldi R18,1
 07C4 F8DD              xcall _DisFunctionKey
 07C6                   .dbline 536
 07C6           ;       Function_Ptr=KeyID;
 07C6 20900000          lds R2,_KeyID
 07CA 20920000          sts _Function_Ptr,R2
 07CE                   .dbline 537
 07CE           ;   }
 07CE 48C0              xjmp L153
 07D0           L152:
 07D0                   .dbline 538
 07D0           ;   else if(KeyID==4)//??????
 07D0 80910000          lds R24,_KeyID
 07D4 8430              cpi R24,4
 07D6 D9F4              brne L154
 07D8           X60:
 07D8                   .dbline 539
 07D8           ;   {
 07D8                   .dbline 540
 07D8           ;       cut_pic(0,13,0,0,199,319,0,50); 
 07D8 82E3              ldi R24,50
 07DA 90E0              ldi R25,0
 07DC 9B87              std y+11,R25
 07DE 8A87              std y+10,R24
 07E0 2224              clr R2
 07E2 3324              clr R3
 07E4 3986              std y+9,R3
 07E6 2886              std y+8,R2
 07E8 8FE3              ldi R24,319
 07EA 91E0              ldi R25,1
 07EC 9F83              std y+7,R25
 07EE 8E83              std y+6,R24
 07F0 87EC              ldi R24,199
 07F2 90E0              ldi R25,0
 07F4 9D83              std y+5,R25
 07F6 8C83              std y+4,R24
 07F8 3B82              std y+3,R3
 07FA 2A82              std y+2,R2
 07FC 3982              std y+1,R3
 07FE 2882              std y+0,R2
 0800 2DE0              ldi R18,13
 0802 0027              clr R16
 0804 0E940000          xcall _cut_pic
 0808                   .dbline 541
 0808           ;       get_time();
 0808 0E940000          xcall _get_time
 080C                   .dbline 542
 080C           ;   }
 080C 29C0              xjmp L155
 080E           L154:
 080E                   .dbline 543
 080E           ;   else if(KeyID==5)//???????
 080E 80910000          lds R24,_KeyID
 0812 8530              cpi R24,5
 0814 E1F4              brne L156
 0816           X61:
 0816                   .dbline 544
 0816           ;   {
 0816                   .dbline 545
 0816           ;        cut_pic(1,10,100,400,100+99,400+99,175,240);//????????????完??   x=(K/3)*145+30;  y=(K%3)*175+65;
 0816 80EF              ldi R24,240
 0818 90E0              ldi R25,0
 081A 9B87              std y+11,R25
 081C 8A87              std y+10,R24
 081E 8FEA              ldi R24,175
 0820 9987              std y+9,R25
 0822 8887              std y+8,R24
 0824 83EF              ldi R24,499
 0826 91E0              ldi R25,1
 0828 9F83              std y+7,R25
 082A 8E83              std y+6,R24
 082C 87EC              ldi R24,199
 082E 90E0              ldi R25,0
 0830 9D83              std y+5,R25
 0832 8C83              std y+4,R24
 0834 80E9              ldi R24,400
 0836 91E0              ldi R25,1
 0838 9B83              std y+3,R25
 083A 8A83              std y+2,R24
 083C 84E6              ldi R24,100
 083E 90E0              ldi R25,0
 0840 9983              std y+1,R25
 0842 8883              std y+0,R24
 0844 2AE0              ldi R18,10
 0846 01E0              ldi R16,1
 0848 0E940000          xcall _cut_pic
 084C                   .dbline 547
 084C           ;   // Function_Ptr=KeyID;
 084C           ;   }
 084C 09C0              xjmp L157
 084E           L156:
 084E                   .dbline 549
 084E           ;   /////////////////////////////
 084E           ;   else if(Function_Count == 0)
 084E 20900000          lds R2,_Function_Count
 0852 2220              tst R2
 0854 29F4              brne L158
 0856           X62:
 0856                   .dbline 550
 0856           ;   {
 0856                   .dbline 551
 0856           ;     KeyID = 0;
 0856 2224              clr R2
 0858 20920000          sts _KeyID,R2
 085C                   .dbline 552
 085C           ;       Function_Ptr=KeyID;  
 085C 20920000          sts _Function_Ptr,R2
 0860                   .dbline 553
 0860           ;   }
 0860           L158:
 0860           L157:
 0860           L155:
 0860           L153:
 0860                   .dbline -2
 0860           L149:
 0860                   .dbline 0 ; func end
 0860 2C96              adiw R28,12
 0862 0895              ret
 0864                   .dbend
                        .area data(ram, con, rel)
 0006                   .dbfile E:\1.JD_Project\21.Android-360\1.Android-360Code\App\app.c
 0006           L161:
 0006                   .blkb 1
                        .area idata
 0006 00                .byte 0
                        .area data(ram, con, rel)
 0007                   .dbfile E:\1.JD_Project\21.Android-360\1.Android-360Code\App\app.c
                        .area text(rom, con, rel)
 0864                   .dbfile E:\1.JD_Project\21.Android-360\1.Android-360Code\App\app.c
 0864                   .dbfunc e MainKeyUp _MainKeyUp fV
 0864                   .dbsym s Cnt L161 c
                        .even
 0864           _MainKeyUp::
 0864 AA92              st -y,R10
 0866 BA92              st -y,R11
 0868 2C97              sbiw R28,12
 086A                   .dbline -1
 086A                   .dbline 558
 086A           ;   /////////////////////////////add function by hanjingyang 20170920
 086A           ; }
 086A           ; 
 086A           ; void MainKeyUp(void)
 086A           ; {
 086A                   .dbline 560
 086A           ;   static char Cnt=0;
 086A           ;   if(DisPage!=WELCOMEPAGE) return;
 086A 20900000          lds R2,_DisPage
 086E 2220              tst R2
 0870 09F0              breq L162
 0872           X63:
 0872                   .dbline 560
 0872 5FC0              xjmp L160
 0874           L162:
 0874                   .dbline 561
 0874           ;   if(KeyID<Function_Count)
 0874 20900000          lds R2,_Function_Count
 0878 30900000          lds R3,_KeyID
 087C 3214              cp R3,R2
 087E 38F4              brsh L164
 0880           X64:
 0880                   .dbline 562
 0880           ;   {
 0880                   .dbline 563
 0880           ;    DisPage=WORKPAGE;
 0880 85E1              ldi R24,21
 0882 80930000          sts _DisPage,R24
 0886                   .dbline 564
 0886           ;    DisWork();
 0886 58DF              xcall _DisWork
 0888                   .dbline 565
 0888           ;    Send_Data8();
 0888 0E940000          xcall _Send_Data8
 088C                   .dbline 566
 088C           ;   }
 088C 39C0              xjmp L165
 088E           L164:
 088E                   .dbline 567
 088E           ;   else if(KeyID==4)
 088E 80910000          lds R24,_KeyID
 0892 8430              cpi R24,4
 0894 21F4              brne L166
 0896           X65:
 0896                   .dbline 568
 0896           ;   {
 0896                   .dbline 569
 0896           ;     DisPage=STARTPAGE;
 0896 81E0              ldi R24,1
 0898 80930000          sts _DisPage,R24
 089C                   .dbline 570
 089C           ;   }
 089C 31C0              xjmp L167
 089E           L166:
 089E                   .dbline 571
 089E           ;   else if(KeyID==5)//???????
 089E 80910000          lds R24,_KeyID
 08A2 8530              cpi R24,5
 08A4 19F5              brne L168
 08A6           X66:
 08A6                   .dbline 572
 08A6           ;   {
 08A6                   .dbline 573
 08A6           ;     DisPage=ultrasonicpage;
 08A6 87E1              ldi R24,23
 08A8 80930000          sts _DisPage,R24
 08AC                   .dbline 574
 08AC           ;     dis_pic(108);
 08AC 0CE6              ldi R16,108
 08AE 0E940000          xcall _dis_pic
 08B2                   .dbline 575
 08B2           ;     cut_pic(1,109,0,510,60,599,420,170);
 08B2 8AEA              ldi R24,170
 08B4 90E0              ldi R25,0
 08B6 9B87              std y+11,R25
 08B8 8A87              std y+10,R24
 08BA 84EA              ldi R24,420
 08BC 91E0              ldi R25,1
 08BE 9987              std y+9,R25
 08C0 8887              std y+8,R24
 08C2 87E5              ldi R24,599
 08C4 92E0              ldi R25,2
 08C6 9F83              std y+7,R25
 08C8 8E83              std y+6,R24
 08CA 8CE3              ldi R24,60
 08CC 90E0              ldi R25,0
 08CE 9D83              std y+5,R25
 08D0 8C83              std y+4,R24
 08D2 8EEF              ldi R24,510
 08D4 91E0              ldi R25,1
 08D6 9B83              std y+3,R25
 08D8 8A83              std y+2,R24
 08DA 2224              clr R2
 08DC 3324              clr R3
 08DE 3982              std y+1,R3
 08E0 2882              std y+0,R2
 08E2 2DE6              ldi R18,109
 08E4 01E0              ldi R16,1
 08E6 0E940000          xcall _cut_pic
 08EA                   .dbline 576
 08EA           ;   }
 08EA 0AC0              xjmp L169
 08EC           L168:
 08EC                   .dbline 577
 08EC           ;   else if(Function_Count==0)
 08EC 20900000          lds R2,_Function_Count
 08F0 2220              tst R2
 08F2 31F4              brne L170
 08F4           X67:
 08F4                   .dbline 578
 08F4           ;   {
 08F4                   .dbline 579
 08F4           ;    DisPage=WORKPAGE;
 08F4 85E1              ldi R24,21
 08F6 80930000          sts _DisPage,R24
 08FA                   .dbline 580
 08FA           ;    DisWork();
 08FA 1EDF              xcall _DisWork
 08FC                   .dbline 581
 08FC           ;    Send_Data8();
 08FC 0E940000          xcall _Send_Data8
 0900                   .dbline 582
 0900           ;   } 
 0900           L170:
 0900           L169:
 0900           L167:
 0900           L165:
 0900                   .dbline 583
 0900           ;   Cnt=KeyID==255?++Cnt:0;
 0900 80910000          lds R24,_KeyID
 0904 8F3F              cpi R24,255
 0906 49F4              brne L172
 0908           X68:
 0908 80910600          lds R24,L161
 090C 8F5F              subi R24,255    ; addi 1
 090E 282E              mov R2,R24
 0910 20920600          sts L161,R2
 0914 A82E              mov R10,R24
 0916 BB24              clr R11
 0918 02C0              xjmp L173
 091A           L172:
 091A AA24              clr R10
 091C BB24              clr R11
 091E           L173:
 091E A0920600          sts L161,R10
 0922                   .dbline 584
 0922           ;   if(Cnt>=10) 
 0922 8A2D              mov R24,R10
 0924 8A30              cpi R24,10
 0926 28F0              brlo L174
 0928           X69:
 0928                   .dbline 585
 0928           ;   {
 0928                   .dbline 586
 0928           ;     Cnt=0;
 0928 2224              clr R2
 092A 20920600          sts L161,R2
 092E                   .dbline 587
 092E           ;     Chack_screen(); 
 092E 0E940000          xcall _Chack_screen
 0932                   .dbline 588
 0932           ;   }
 0932           L174:
 0932                   .dbline -2
 0932           L160:
 0932                   .dbline 0 ; func end
 0932 2C96              adiw R28,12
 0934 B990              ld R11,y+
 0936 A990              ld R10,y+
 0938 0895              ret
 093A                   .dbend
 093A                   .dbfunc e StartKeyDown _StartKeyDown fV
                        .even
 093A           _StartKeyDown::
 093A 0E940000          xcall push_xgsetF00C
 093E 2C97              sbiw R28,12
 0940                   .dbline -1
 0940                   .dbline 591
 0940           ; }
 0940           ; void StartKeyDown(void)
 0940           ; {
 0940                   .dbline 592
 0940           ;   if(DisPage!=STARTPAGE) return;
 0940 80910000          lds R24,_DisPage
 0944 8130              cpi R24,1
 0946 09F0              breq L177
 0948           X70:
 0948                   .dbline 592
 0948 64C3              xjmp L176
 094A           L177:
 094A                   .dbline 593
 094A           ;   KeyID=GetKeyID(Start_Key,9); 
 094A 29E0              ldi R18,9
 094C 00E0              ldi R16,<_Start_Key
 094E 10E0              ldi R17,>_Start_Key
 0950 F6DE              xcall _GetKeyID
 0952 00930000          sts _KeyID,R16
 0956                   .dbline 594
 0956           ;   if(KeyID<8)
 0956 802F              mov R24,R16
 0958 0830              cpi R16,8
 095A E8F4              brsh L179
 095C           X71:
 095C                   .dbline 595
 095C           ;   {
 095C                   .dbline 596
 095C           ;     cut_pic(0,13,201,KeyID*40,400,KeyID*40+40,0,50+KeyID*40);
 095C 182F              mov R17,R24
 095E 08E2              ldi R16,40
 0960 0103              mulsu R16,R17
 0962 C001              movw R24,R0
 0964 C296              adiw R24,50
 0966 9B87              std y+11,R25
 0968 8A87              std y+10,R24
 096A 2224              clr R2
 096C 3324              clr R3
 096E 3986              std y+9,R3
 0970 2886              std y+8,R2
 0972 C001              movw R24,R0
 0974 8896              adiw R24,40
 0976 9F83              std y+7,R25
 0978 8E83              std y+6,R24
 097A 80E9              ldi R24,400
 097C 91E0              ldi R25,1
 097E 9D83              std y+5,R25
 0980 8C83              std y+4,R24
 0982 1B82              std y+3,R1
 0984 0A82              std y+2,R0
 0986 89EC              ldi R24,201
 0988 90E0              ldi R25,0
 098A 9983              std y+1,R25
 098C 8883              std y+0,R24
 098E 2DE0              ldi R18,13
 0990 0027              clr R16
 0992 0E940000          xcall _cut_pic
 0996                   .dbline 597
 0996           ;   }
 0996           L179:
 0996                   .dbline 598
 0996           ;   if(KeyID==0)
 0996 20900000          lds R2,_KeyID
 099A 2220              tst R2
 099C 09F0              breq X87
 099E BCC0              xjmp L181
 09A0           X87:
 09A0           X72:
 09A0                   .dbline 599
 09A0           ;   {
 09A0                   .dbline 600
 09A0           ;     DisPage=TIMEPAGE;
 09A0 82E0              ldi R24,2
 09A2 80930000          sts _DisPage,R24
 09A6                   .dbline 601
 09A6           ;     cut_pic(0,14,0,0,269,330,300,100);
 09A6 84E6              ldi R24,100
 09A8 90E0              ldi R25,0
 09AA 9B87              std y+11,R25
 09AC 8A87              std y+10,R24
 09AE 8CE2              ldi R24,300
 09B0 91E0              ldi R25,1
 09B2 9987              std y+9,R25
 09B4 8887              std y+8,R24
 09B6 8AE4              ldi R24,74
 09B8 9F83              std y+7,R25
 09BA 8E83              std y+6,R24
 09BC 8DE0              ldi R24,13
 09BE 9D83              std y+5,R25
 09C0 8C83              std y+4,R24
 09C2 2224              clr R2
 09C4 3324              clr R3
 09C6 3B82              std y+3,R3
 09C8 2A82              std y+2,R2
 09CA 3982              std y+1,R3
 09CC 2882              std y+0,R2
 09CE 2EE0              ldi R18,14
 09D0 0027              clr R16
 09D2 0E940000          xcall _cut_pic
 09D6                   .dbline 602
 09D6           ;         text_ptr=0;
 09D6 2224              clr R2
 09D8 20920000          sts _text_ptr,R2
 09DC                   .dbline 603
 09DC           ;         Text[0]=(datetime[0]>>4)+'0';
 09DC 80910000          lds R24,_datetime
 09E0 8295              swap R24
 09E2 8F70              andi R24,#0x0F
 09E4 805D              subi R24,208    ; addi 48
 09E6 80930000          sts _Text,R24
 09EA                   .dbline 604
 09EA           ;     Text[1]=(datetime[0]&0x0f)+'0';
 09EA 80910000          lds R24,_datetime
 09EE 8F70              andi R24,15
 09F0 805D              subi R24,208    ; addi 48
 09F2 80930100          sts _Text+1,R24
 09F6                   .dbline 605
 09F6           ;     Text[2]='-';
 09F6 8DE2              ldi R24,45
 09F8 80930200          sts _Text+2,R24
 09FC                   .dbline 606
 09FC           ;     Text[3]=(datetime[1]>>4)+'0';
 09FC 80910100          lds R24,_datetime+1
 0A00 8295              swap R24
 0A02 8F70              andi R24,#0x0F
 0A04 805D              subi R24,208    ; addi 48
 0A06 80930300          sts _Text+3,R24
 0A0A                   .dbline 607
 0A0A           ;     Text[4]=(datetime[1]&0x0f)+'0';
 0A0A 80910100          lds R24,_datetime+1
 0A0E 8F70              andi R24,15
 0A10 805D              subi R24,208    ; addi 48
 0A12 80930400          sts _Text+4,R24
 0A16                   .dbline 608
 0A16           ;     Text[5]='-';
 0A16 8DE2              ldi R24,45
 0A18 80930500          sts _Text+5,R24
 0A1C                   .dbline 609
 0A1C           ;     Text[6]=(datetime[2]>>4)+'0';
 0A1C 80910200          lds R24,_datetime+2
 0A20 8295              swap R24
 0A22 8F70              andi R24,#0x0F
 0A24 805D              subi R24,208    ; addi 48
 0A26 80930600          sts _Text+6,R24
 0A2A                   .dbline 610
 0A2A           ;     Text[7]=(datetime[2]&0x0f)+'0';
 0A2A 80910200          lds R24,_datetime+2
 0A2E 8F70              andi R24,15
 0A30 805D              subi R24,208    ; addi 48
 0A32 80930700          sts _Text+7,R24
 0A36                   .dbline 611
 0A36           ;     Text[8]=' ';
 0A36 80E2              ldi R24,32
 0A38 80930800          sts _Text+8,R24
 0A3C                   .dbline 612
 0A3C           ;         Text[9]=(datetime[4]>>4)+'0';
 0A3C 80910400          lds R24,_datetime+4
 0A40 8295              swap R24
 0A42 8F70              andi R24,#0x0F
 0A44 805D              subi R24,208    ; addi 48
 0A46 80930900          sts _Text+9,R24
 0A4A                   .dbline 613
 0A4A           ;     Text[10]=(datetime[4]&0x0f)+'0';
 0A4A 80910400          lds R24,_datetime+4
 0A4E 8F70              andi R24,15
 0A50 805D              subi R24,208    ; addi 48
 0A52 80930A00          sts _Text+10,R24
 0A56                   .dbline 614
 0A56           ;     Text[11]=':';
 0A56 8AE3              ldi R24,58
 0A58 80930B00          sts _Text+11,R24
 0A5C                   .dbline 615
 0A5C           ;     Text[12]=(datetime[5]>>4)+'0';
 0A5C 80910500          lds R24,_datetime+5
 0A60 8295              swap R24
 0A62 8F70              andi R24,#0x0F
 0A64 805D              subi R24,208    ; addi 48
 0A66 80930C00          sts _Text+12,R24
 0A6A                   .dbline 616
 0A6A           ;     Text[13]=(datetime[5]&0x0f)+'0';
 0A6A 80910500          lds R24,_datetime+5
 0A6E 8F70              andi R24,15
 0A70 805D              subi R24,208    ; addi 48
 0A72 80930D00          sts _Text+13,R24
 0A76                   .dbline 617
 0A76           ;     Text[14]=':';
 0A76 8AE3              ldi R24,58
 0A78 80930E00          sts _Text+14,R24
 0A7C                   .dbline 618
 0A7C           ;     Text[15]=(datetime[6]>>4)+'0';
 0A7C 80910600          lds R24,_datetime+6
 0A80 8295              swap R24
 0A82 8F70              andi R24,#0x0F
 0A84 805D              subi R24,208    ; addi 48
 0A86 80930F00          sts _Text+15,R24
 0A8A                   .dbline 619
 0A8A           ;     Text[16]=(datetime[6]&0x0f)+'0';
 0A8A 80910600          lds R24,_datetime+6
 0A8E 8F70              andi R24,15
 0A90 805D              subi R24,208    ; addi 48
 0A92 80931000          sts _Text+16,R24
 0A96                   .dbline 620
 0A96           ;     Text[17]='\0';
 0A96 20921100          sts _Text+17,R2
 0A9A                   .dbline 621
 0A9A           ;     Text[18]=Text[text_ptr];
 0A9A 80E0              ldi R24,<_Text
 0A9C 90E0              ldi R25,>_Text
 0A9E E22D              mov R30,R2
 0AA0 FF27              clr R31
 0AA2 E80F              add R30,R24
 0AA4 F91F              adc R31,R25
 0AA6 2080              ldd R2,z+0
 0AA8 20921200          sts _Text+18,R2
 0AAC                   .dbline 622
 0AAC           ;     Text[19]='\0';
 0AAC 2224              clr R2
 0AAE 20921300          sts _Text+19,R2
 0AB2                   .dbline 623
 0AB2           ;         print_texts(335,156,0,0xD1,2,0x04bb,0xffff,Text);
 0AB2 9B87              std y+11,R25
 0AB4 8A87              std y+10,R24
 0AB6 8FEF              ldi R24,65535
 0AB8 9FEF              ldi R25,255
 0ABA 9987              std y+9,R25
 0ABC 8887              std y+8,R24
 0ABE 8BEB              ldi R24,1211
 0AC0 94E0              ldi R25,4
 0AC2 9F83              std y+7,R25
 0AC4 8E83              std y+6,R24
 0AC6 82E0              ldi R24,2
 0AC8 8C83              std y+4,R24
 0ACA 81ED              ldi R24,209
 0ACC 8A83              std y+2,R24
 0ACE 2882              std y+0,R2
 0AD0 2CE9              ldi R18,156
 0AD2 30E0              ldi R19,0
 0AD4 0FE4              ldi R16,335
 0AD6 11E0              ldi R17,1
 0AD8 0E940000          xcall _print_texts
 0ADC                   .dbline 624
 0ADC           ;     print_texts(335+text_ptr*12,156,0,0xD1,2,0xffff,0x04bb,&Text[18]);
 0ADC 80E0              ldi R24,<_Text+18
 0ADE 90E0              ldi R25,>_Text+18
 0AE0 9B87              std y+11,R25
 0AE2 8A87              std y+10,R24
 0AE4 8BEB              ldi R24,1211
 0AE6 94E0              ldi R25,4
 0AE8 9987              std y+9,R25
 0AEA 8887              std y+8,R24
 0AEC 8FEF              ldi R24,65535
 0AEE 9FEF              ldi R25,255
 0AF0 9F83              std y+7,R25
 0AF2 8E83              std y+6,R24
 0AF4 82E0              ldi R24,2
 0AF6 8C83              std y+4,R24
 0AF8 81ED              ldi R24,209
 0AFA 8A83              std y+2,R24
 0AFC 2224              clr R2
 0AFE 2882              std y+0,R2
 0B00 2CE9              ldi R18,156
 0B02 30E0              ldi R19,0
 0B04 10910000          lds R17,_text_ptr
 0B08 0CE0              ldi R16,12
 0B0A 0103              mulsu R16,R17
 0B0C 8001              movw R16,R0
 0B0E 015B              subi R16,177  ; offset = 335
 0B10 1E4F              sbci R17,254
 0B12 0E940000          xcall _print_texts
 0B16                   .dbline 625
 0B16           ;   }
 0B16 7DC2              xjmp L182
 0B18           L181:
 0B18                   .dbline 626
 0B18           ;   else if(KeyID==2)
 0B18 80910000          lds R24,_KeyID
 0B1C 8230              cpi R24,2
 0B1E 09F0              breq X88
 0B20 43C0              xjmp L213
 0B22           X88:
 0B22           X73:
 0B22                   .dbline 627
 0B22           ;   {
 0B22                   .dbline 628
 0B22           ;     DisPage=SOUNDPAGE;
 0B22 84E0              ldi R24,4
 0B24 80930000          sts _DisPage,R24
 0B28                   .dbline 629
 0B28           ;     cut_pic(0,14,181,331,360,531,300,200);
 0B28 88EC              ldi R24,200
 0B2A 90E0              ldi R25,0
 0B2C 9B87              std y+11,R25
 0B2E 8A87              std y+10,R24
 0B30 8CE2              ldi R24,300
 0B32 91E0              ldi R25,1
 0B34 9987              std y+9,R25
 0B36 8887              std y+8,R24
 0B38 83E1              ldi R24,531
 0B3A 92E0              ldi R25,2
 0B3C 9F83              std y+7,R25
 0B3E 8E83              std y+6,R24
 0B40 88E6              ldi R24,360
 0B42 91E0              ldi R25,1
 0B44 9D83              std y+5,R25
 0B46 8C83              std y+4,R24
 0B48 8BE4              ldi R24,75
 0B4A 9B83              std y+3,R25
 0B4C 8A83              std y+2,R24
 0B4E 85EB              ldi R24,181
 0B50 90E0              ldi R25,0
 0B52 9983              std y+1,R25
 0B54 8883              std y+0,R24
 0B56 2EE0              ldi R18,14
 0B58 0027              clr R16
 0B5A 0E940000          xcall _cut_pic
 0B5E                   .dbline 630
 0B5E           ;         cut_pic(0,14,1,371,170,371+(10-SoundSet)*15,301,240);
 0B5E 80EF              ldi R24,240
 0B60 90E0              ldi R25,0
 0B62 9B87              std y+11,R25
 0B64 8A87              std y+10,R24
 0B66 8DE2              ldi R24,301
 0B68 91E0              ldi R25,1
 0B6A 9987              std y+9,R25
 0B6C 8887              std y+8,R24
 0B6E 20900000          lds R2,_SoundSet
 0B72 8AE0              ldi R24,10
 0B74 382E              mov R3,R24
 0B76 3218              sub R3,R2
 0B78 8FE0              ldi R24,15
 0B7A 839D              mul R24,R3
 0B7C C001              movw R24,R0
 0B7E 8D58              subi R24,141  ; offset = 371
 0B80 9E4F              sbci R25,254
 0B82 9F83              std y+7,R25
 0B84 8E83              std y+6,R24
 0B86 8AEA              ldi R24,170
 0B88 90E0              ldi R25,0
 0B8A 9D83              std y+5,R25
 0B8C 8C83              std y+4,R24
 0B8E 83E7              ldi R24,371
 0B90 91E0              ldi R25,1
 0B92 9B83              std y+3,R25
 0B94 8A83              std y+2,R24
 0B96 81E0              ldi R24,1
 0B98 90E0              ldi R25,0
 0B9A 9983              std y+1,R25
 0B9C 8883              std y+0,R24
 0B9E 2EE0              ldi R18,14
 0BA0 0027              clr R16
 0BA2 0E940000          xcall _cut_pic
 0BA6                   .dbline 631
 0BA6           ;   }
 0BA6 35C2              xjmp L214
 0BA8           L213:
 0BA8                   .dbline 632
 0BA8           ;   else if(KeyID==3)
 0BA8 80910000          lds R24,_KeyID
 0BAC 8330              cpi R24,3
 0BAE 09F0              breq X89
 0BB0 61C0              xjmp L215
 0BB2           X89:
 0BB2           X74:
 0BB2                   .dbline 633
 0BB2           ;   {
 0BB2                   .dbline 634
 0BB2           ;     DisPage=LANGUAGEPAGE; 
 0BB2 85E0              ldi R24,5
 0BB4 80930000          sts _DisPage,R24
 0BB8                   .dbline 635
 0BB8           ;     cut_pic(0,15,0,0,374,400,300,100);
 0BB8 84E6              ldi R24,100
 0BBA 90E0              ldi R25,0
 0BBC 9B87              std y+11,R25
 0BBE 8A87              std y+10,R24
 0BC0 8CE2              ldi R24,300
 0BC2 91E0              ldi R25,1
 0BC4 9987              std y+9,R25
 0BC6 8887              std y+8,R24
 0BC8 80E9              ldi R24,144
 0BCA 9F83              std y+7,R25
 0BCC 8E83              std y+6,R24
 0BCE 86E7              ldi R24,118
 0BD0 9D83              std y+5,R25
 0BD2 8C83              std y+4,R24
 0BD4 2224              clr R2
 0BD6 3324              clr R3
 0BD8 3B82              std y+3,R3
 0BDA 2A82              std y+2,R2
 0BDC 3982              std y+1,R3
 0BDE 2882              std y+0,R2
 0BE0 2FE0              ldi R18,15
 0BE2 0027              clr R16
 0BE4 0E940000          xcall _cut_pic
 0BE8                   .dbline 636
 0BE8           ;         cut_pic(0,15,Language_Key[Language].XS+75,Language_Key[Language].YS-100,Language_Key[Language].XE+75,Language_Key[Language].YE-100,Language_Key[Language].XS,Language_Key[Language].YS);
 0BE8 A0900000          lds R10,_Language
 0BEC BB24              clr R11
 0BEE AA0C              lsl R10
 0BF0 BB1C              rol R11
 0BF2 AA0C              lsl R10
 0BF4 BB1C              rol R11
 0BF6 AA0C              lsl R10
 0BF8 BB1C              rol R11
 0BFA 80E0              ldi R24,<_Language_Key+2
 0BFC 90E0              ldi R25,>_Language_Key+2
 0BFE F501              movw R30,R10
 0C00 E80F              add R30,R24
 0C02 F91F              adc R31,R25
 0C04 2790              elpm R2,Z+
 0C06 3690              elpm R3,Z
 0C08 3B86              std y+11,R3
 0C0A 2A86              std y+10,R2
 0C0C 80E0              ldi R24,<_Language_Key
 0C0E 90E0              ldi R25,>_Language_Key
 0C10 F501              movw R30,R10
 0C12 E80F              add R30,R24
 0C14 F91F              adc R31,R25
 0C16 4791              elpm R20,Z+
 0C18 5691              elpm R21,Z
 0C1A 5987              std y+9,R21
 0C1C 4887              std y+8,R20
 0C1E 80E0              ldi R24,<_Language_Key+6
 0C20 90E0              ldi R25,>_Language_Key+6
 0C22 F501              movw R30,R10
 0C24 E80F              add R30,R24
 0C26 F91F              adc R31,R25
 0C28 8791              elpm R24,Z+
 0C2A 9691              elpm R25,Z
 0C2C 8456              subi R24,100
 0C2E 9040              sbci R25,0
 0C30 9F83              std y+7,R25
 0C32 8E83              std y+6,R24
 0C34 80E0              ldi R24,<_Language_Key+4
 0C36 90E0              ldi R25,>_Language_Key+4
 0C38 F501              movw R30,R10
 0C3A E80F              add R30,R24
 0C3C F91F              adc R31,R25
 0C3E 8791              elpm R24,Z+
 0C40 9691              elpm R25,Z
 0C42 855B              subi R24,181  ; offset = 75
 0C44 9F4F              sbci R25,255
 0C46 9D83              std y+5,R25
 0C48 8C83              std y+4,R24
 0C4A 80E0              ldi R24,<_Language_Key+2
 0C4C 90E0              ldi R25,>_Language_Key+2
 0C4E F501              movw R30,R10
 0C50 E80F              add R30,R24
 0C52 F91F              adc R31,R25
 0C54 8791              elpm R24,Z+
 0C56 9691              elpm R25,Z
 0C58 8456              subi R24,100
 0C5A 9040              sbci R25,0
 0C5C 9B83              std y+3,R25
 0C5E 8A83              std y+2,R24
 0C60 CA01              movw R24,R20
 0C62 855B              subi R24,181  ; offset = 75
 0C64 9F4F              sbci R25,255
 0C66 9983              std y+1,R25
 0C68 8883              std y+0,R24
 0C6A 2FE0              ldi R18,15
 0C6C 0027              clr R16
 0C6E 0E940000          xcall _cut_pic
 0C72                   .dbline 637
 0C72           ;   }
 0C72 CFC1              xjmp L216
 0C74           L215:
 0C74                   .dbline 638
 0C74           ;   else if(KeyID==4)
 0C74 80910000          lds R24,_KeyID
 0C78 8430              cpi R24,4
 0C7A 09F0              breq X90
 0C7C 3DC0              xjmp L221
 0C7E           X90:
 0C7E           X75:
 0C7E                   .dbline 639
 0C7E           ;   {
 0C7E                   .dbline 640
 0C7E           ;     DisPage=BACKPAGE; 
 0C7E 86E0              ldi R24,6
 0C80 80930000          sts _DisPage,R24
 0C84                   .dbline 641
 0C84           ;     cut_pic(0,16+BackSet/6,(BackSet%3)*241,(BackSet%6/3)*270,(BackSet%3)*241+239,(BackSet%6/3)*270+269,300,200);
 0C84 88EC              ldi R24,200
 0C86 90E0              ldi R25,0
 0C88 9B87              std y+11,R25
 0C8A 8A87              std y+10,R24
 0C8C 8CE2              ldi R24,300
 0C8E 91E0              ldi R25,1
 0C90 9987              std y+9,R25
 0C92 8887              std y+8,R24
 0C94 A0900000          lds R10,_BackSet
 0C98 26E0              ldi R18,6
 0C9A 30E0              ldi R19,0
 0C9C 0A2D              mov R16,R10
 0C9E 1127              clr R17
 0CA0 0E940000          xcall mod16s
 0CA4 23E0              ldi R18,3
 0CA6 30E0              ldi R19,0
 0CA8 0E940000          xcall div16s
 0CAC 8EE0              ldi R24,270
 0CAE 91E0              ldi R25,1
 0CB0 9801              movw R18,R16
 0CB2 8C01              movw R16,R24
 0CB4 0E940000          xcall empy16s
 0CB8 B801              movw R22,R16
 0CBA CB01              movw R24,R22
 0CBC 835F              subi R24,243  ; offset = 269
 0CBE 9E4F              sbci R25,254
 0CC0 9F83              std y+7,R25
 0CC2 8E83              std y+6,R24
 0CC4 13E0              ldi R17,3
 0CC6 0A2D              mov R16,R10
 0CC8 0E940000          xcall mod8u
 0CCC 81EF              ldi R24,241
 0CCE 809F              mul R24,R16
 0CD0 A001              movw R20,R0
 0CD2 CA01              movw R24,R20
 0CD4 8151              subi R24,17  ; offset = 239
 0CD6 9F4F              sbci R25,255
 0CD8 9D83              std y+5,R25
 0CDA 8C83              std y+4,R24
 0CDC 7B83              std y+3,R23
 0CDE 6A83              std y+2,R22
 0CE0 5983              std y+1,R21
 0CE2 4883              std y+0,R20
 0CE4 16E0              ldi R17,6
 0CE6 0A2D              mov R16,R10
 0CE8 0E940000          xcall div8u
 0CEC 202F              mov R18,R16
 0CEE 205F              subi R18,240    ; addi 16
 0CF0 0027              clr R16
 0CF2 0E940000          xcall _cut_pic
 0CF6                   .dbline 642
 0CF6           ;   }
 0CF6 8DC1              xjmp L222
 0CF8           L221:
 0CF8                   .dbline 643
 0CF8           ;   else if(KeyID==5)
 0CF8 80910000          lds R24,_KeyID
 0CFC 8530              cpi R24,5
 0CFE E9F4              brne L223
 0D00           X76:
 0D00                   .dbline 644
 0D00           ;   {
 0D00                   .dbline 645
 0D00           ;     DisPage=USBPAGE;
 0D00 87E0              ldi R24,7
 0D02 80930000          sts _DisPage,R24
 0D06                   .dbline 646
 0D06           ;     cut_pic(0,26,0,282,269,422,300,200);
 0D06 88EC              ldi R24,200
 0D08 90E0              ldi R25,0
 0D0A 9B87              std y+11,R25
 0D0C 8A87              std y+10,R24
 0D0E 8CE2              ldi R24,300
 0D10 91E0              ldi R25,1
 0D12 9987              std y+9,R25
 0D14 8887              std y+8,R24
 0D16 86EA              ldi R24,166
 0D18 9F83              std y+7,R25
 0D1A 8E83              std y+6,R24
 0D1C 8DE0              ldi R24,13
 0D1E 9D83              std y+5,R25
 0D20 8C83              std y+4,R24
 0D22 8AE1              ldi R24,26
 0D24 9B83              std y+3,R25
 0D26 8A83              std y+2,R24
 0D28 2224              clr R2
 0D2A 3324              clr R3
 0D2C 3982              std y+1,R3
 0D2E 2882              std y+0,R2
 0D30 2AE1              ldi R18,26
 0D32 0027              clr R16
 0D34 0E940000          xcall _cut_pic
 0D38                   .dbline 647
 0D38           ;   }
 0D38 6CC1              xjmp L224
 0D3A           L223:
 0D3A                   .dbline 648
 0D3A           ;   else if(KeyID==6)
 0D3A 80910000          lds R24,_KeyID
 0D3E 8630              cpi R24,6
 0D40 09F0              breq X91
 0D42 00C1              xjmp L225
 0D44           X91:
 0D44           X77:
 0D44                   .dbline 649
 0D44           ;   {
 0D44                   .dbline 650
 0D44           ;     if(Card_Type>1)
 0D44 81E0              ldi R24,1
 0D46 20900000          lds R2,_Card_Type
 0D4A 8215              cp R24,R2
 0D4C 08F0              brlo X92
 0D4E E1C0              xjmp L227
 0D50           X92:
 0D50           X78:
 0D50                   .dbline 651
 0D50           ;       {
 0D50                   .dbline 652
 0D50           ;      DisPage=CARDPAGE;
 0D50 88E0              ldi R24,8
 0D52 80930000          sts _DisPage,R24
 0D56                   .dbline 653
 0D56           ;        text_ptr=255;
 0D56 8FEF              ldi R24,255
 0D58 80930000          sts _text_ptr,R24
 0D5C                   .dbline 654
 0D5C           ;      cut_pic(0,18,0,0,269,369,300,100);
 0D5C 84E6              ldi R24,100
 0D5E 90E0              ldi R25,0
 0D60 9B87              std y+11,R25
 0D62 8A87              std y+10,R24
 0D64 8CE2              ldi R24,300
 0D66 91E0              ldi R25,1
 0D68 9987              std y+9,R25
 0D6A 8887              std y+8,R24
 0D6C 81E7              ldi R24,113
 0D6E 9F83              std y+7,R25
 0D70 8E83              std y+6,R24
 0D72 8DE0              ldi R24,13
 0D74 9D83              std y+5,R25
 0D76 8C83              std y+4,R24
 0D78 2224              clr R2
 0D7A 3324              clr R3
 0D7C 3B82              std y+3,R3
 0D7E 2A82              std y+2,R2
 0D80 3982              std y+1,R3
 0D82 2882              std y+0,R2
 0D84 22E1              ldi R18,18
 0D86 0027              clr R16
 0D88 0E940000          xcall _cut_pic
 0D8C                   .dbline 655
 0D8C           ;        Text[0]=User_ID/100+'0';
 0D8C 14E6              ldi R17,100
 0D8E 00910000          lds R16,_User_ID
 0D92 0E940000          xcall div8u
 0D96 802F              mov R24,R16
 0D98 805D              subi R24,208    ; addi 48
 0D9A 80930000          sts _Text,R24
 0D9E                   .dbline 656
 0D9E           ;      Text[1]=(User_ID%100)/10+'0';
 0D9E 14E6              ldi R17,100
 0DA0 00910000          lds R16,_User_ID
 0DA4 0E940000          xcall mod8u
 0DA8 1AE0              ldi R17,10
 0DAA 0E940000          xcall div8u
 0DAE 802F              mov R24,R16
 0DB0 805D              subi R24,208    ; addi 48
 0DB2 80930100          sts _Text+1,R24
 0DB6                   .dbline 657
 0DB6           ;        Text[2]=User_ID%10+'0';
 0DB6 1AE0              ldi R17,10
 0DB8 00910000          lds R16,_User_ID
 0DBC 0E940000          xcall mod8u
 0DC0 802F              mov R24,R16
 0DC2 805D              subi R24,208    ; addi 48
 0DC4 80930200          sts _Text+2,R24
 0DC8                   .dbline 658
 0DC8           ;      Text[3]='\0';
 0DC8 2224              clr R2
 0DCA 20920300          sts _Text+3,R2
 0DCE                   .dbline 659
 0DCE           ;        print_texts(343,152,0,0xD1,2,0x04bb,0xffff,Text);
 0DCE 80E0              ldi R24,<_Text
 0DD0 90E0              ldi R25,>_Text
 0DD2 9B87              std y+11,R25
 0DD4 8A87              std y+10,R24
 0DD6 8FEF              ldi R24,65535
 0DD8 9FEF              ldi R25,255
 0DDA 9987              std y+9,R25
 0DDC 8887              std y+8,R24
 0DDE 8BEB              ldi R24,1211
 0DE0 94E0              ldi R25,4
 0DE2 9F83              std y+7,R25
 0DE4 8E83              std y+6,R24
 0DE6 82E0              ldi R24,2
 0DE8 8C83              std y+4,R24
 0DEA 81ED              ldi R24,209
 0DEC 8A83              std y+2,R24
 0DEE 2882              std y+0,R2
 0DF0 28E9              ldi R18,152
 0DF2 30E0              ldi R19,0
 0DF4 07E5              ldi R16,343
 0DF6 11E0              ldi R17,1
 0DF8 0E940000          xcall _print_texts
 0DFC                   .dbline 660
 0DFC           ;        User_Type=0;
 0DFC 2224              clr R2
 0DFE 20920000          sts _User_Type,R2
 0E02                   .dbline 661
 0E02           ;        print_consttexts(406,152,0,0x81,2,0x04bb,0xffff,&user_type[User_Type][0]);
 0E02 122D              mov R17,R2
 0E04 06E0              ldi R16,6
 0E06 0103              mulsu R16,R17
 0E08 1001              movw R2,R0
 0E0A 80E0              ldi R24,<_user_type
 0E0C 90E0              ldi R25,>_user_type
 0E0E 280E              add R2,R24
 0E10 391E              adc R3,R25
 0E12 3B86              std y+11,R3
 0E14 2A86              std y+10,R2
 0E16 8FEF              ldi R24,65535
 0E18 9FEF              ldi R25,255
 0E1A 9987              std y+9,R25
 0E1C 8887              std y+8,R24
 0E1E 8BEB              ldi R24,1211
 0E20 94E0              ldi R25,4
 0E22 9F83              std y+7,R25
 0E24 8E83              std y+6,R24
 0E26 82E0              ldi R24,2
 0E28 8C83              std y+4,R24
 0E2A 81E8              ldi R24,129
 0E2C 8A83              std y+2,R24
 0E2E 2224              clr R2
 0E30 2882              std y+0,R2
 0E32 28E9              ldi R18,152
 0E34 30E0              ldi R19,0
 0E36 06E9              ldi R16,406
 0E38 11E0              ldi R17,1
 0E3A 0E940000          xcall _print_consttexts
 0E3E                   .dbline 662
 0E3E           ;        User_Counter=10000;
 0E3E 80E1              ldi R24,10000
 0E40 97E2              ldi R25,39
 0E42 90930100          sts _User_Counter+1,R25
 0E46 80930000          sts _User_Counter,R24
 0E4A                   .dbline 663
 0E4A           ;      Text[4]=User_Counter/10000+'0';
 0E4A 20E1              ldi R18,10000
 0E4C 37E2              ldi R19,39
 0E4E 8C01              movw R16,R24
 0E50 0E940000          xcall div16u
 0E54 C801              movw R24,R16
 0E56 C096              adiw R24,48
 0E58 80930400          sts _Text+4,R24
 0E5C                   .dbline 664
 0E5C           ;      Text[5]=User_Counter%10000/1000+'0';
 0E5C 20E1              ldi R18,10000
 0E5E 37E2              ldi R19,39
 0E60 00910000          lds R16,_User_Counter
 0E64 10910100          lds R17,_User_Counter+1
 0E68 0E940000          xcall mod16u
 0E6C 28EE              ldi R18,1000
 0E6E 33E0              ldi R19,3
 0E70 0E940000          xcall div16u
 0E74 C801              movw R24,R16
 0E76 C096              adiw R24,48
 0E78 80930500          sts _Text+5,R24
 0E7C                   .dbline 665
 0E7C           ;        Text[6]=User_Counter%1000/100+'0';
 0E7C 28EE              ldi R18,1000
 0E7E 33E0              ldi R19,3
 0E80 00910000          lds R16,_User_Counter
 0E84 10910100          lds R17,_User_Counter+1
 0E88 0E940000          xcall mod16u
 0E8C 24E6              ldi R18,100
 0E8E 30E0              ldi R19,0
 0E90 0E940000          xcall div16u
 0E94 C801              movw R24,R16
 0E96 C096              adiw R24,48
 0E98 80930600          sts _Text+6,R24
 0E9C                   .dbline 666
 0E9C           ;        Text[7]=User_Counter%100/10+'0';
 0E9C 24E6              ldi R18,100
 0E9E 30E0              ldi R19,0
 0EA0 00910000          lds R16,_User_Counter
 0EA4 10910100          lds R17,_User_Counter+1
 0EA8 0E940000          xcall mod16u
 0EAC 2AE0              ldi R18,10
 0EAE 30E0              ldi R19,0
 0EB0 0E940000          xcall div16u
 0EB4 C801              movw R24,R16
 0EB6 C096              adiw R24,48
 0EB8 80930700          sts _Text+7,R24
 0EBC                   .dbline 667
 0EBC           ;        Text[8]=User_Counter%10+'0';
 0EBC 2AE0              ldi R18,10
 0EBE 30E0              ldi R19,0
 0EC0 00910000          lds R16,_User_Counter
 0EC4 10910100          lds R17,_User_Counter+1
 0EC8 0E940000          xcall mod16u
 0ECC C801              movw R24,R16
 0ECE C096              adiw R24,48
 0ED0 80930800          sts _Text+8,R24
 0ED4                   .dbline 668
 0ED4           ;        Text[9]='\0';
 0ED4 2224              clr R2
 0ED6 20920900          sts _Text+9,R2
 0EDA                   .dbline 669
 0EDA           ;      Text[10]=0;
 0EDA 20920A00          sts _Text+10,R2
 0EDE                   .dbline 670
 0EDE           ;      Text[11]='\0';
 0EDE 20920B00          sts _Text+11,R2
 0EE2                   .dbline 671
 0EE2           ;        print_texts(482,152,0,0xD1,2,0x04bb,0xffff,&Text[4]);
 0EE2 80E0              ldi R24,<_Text+4
 0EE4 90E0              ldi R25,>_Text+4
 0EE6 9B87              std y+11,R25
 0EE8 8A87              std y+10,R24
 0EEA 8FEF              ldi R24,65535
 0EEC 9FEF              ldi R25,255
 0EEE 9987              std y+9,R25
 0EF0 8887              std y+8,R24
 0EF2 8BEB              ldi R24,1211
 0EF4 94E0              ldi R25,4
 0EF6 9F83              std y+7,R25
 0EF8 8E83              std y+6,R24
 0EFA 82E0              ldi R24,2
 0EFC 8C83              std y+4,R24
 0EFE 81ED              ldi R24,209
 0F00 8A83              std y+2,R24
 0F02 2882              std y+0,R2
 0F04 28E9              ldi R18,152
 0F06 30E0              ldi R19,0
 0F08 02EE              ldi R16,482
 0F0A 11E0              ldi R17,1
 0F0C 0E940000          xcall _print_texts
 0F10                   .dbline 672
 0F10           ;       }
 0F10 80C0              xjmp L226
 0F12           L227:
 0F12                   .dbline 673
 0F12           ;       else cut_pic(0,13,0,0,199,319,0,50); 
 0F12 82E3              ldi R24,50
 0F14 90E0              ldi R25,0
 0F16 9B87              std y+11,R25
 0F18 8A87              std y+10,R24
 0F1A 2224              clr R2
 0F1C 3324              clr R3
 0F1E 3986              std y+9,R3
 0F20 2886              std y+8,R2
 0F22 8FE3              ldi R24,319
 0F24 91E0              ldi R25,1
 0F26 9F83              std y+7,R25
 0F28 8E83              std y+6,R24
 0F2A 87EC              ldi R24,199
 0F2C 90E0              ldi R25,0
 0F2E 9D83              std y+5,R25
 0F30 8C83              std y+4,R24
 0F32 3B82              std y+3,R3
 0F34 2A82              std y+2,R2
 0F36 3982              std y+1,R3
 0F38 2882              std y+0,R2
 0F3A 2DE0              ldi R18,13
 0F3C 0027              clr R16
 0F3E 0E940000          xcall _cut_pic
 0F42                   .dbline 674
 0F42           ;   }
 0F42 67C0              xjmp L226
 0F44           L225:
 0F44                   .dbline 675
 0F44           ;   else if(KeyID==7)
 0F44 80910000          lds R24,_KeyID
 0F48 8730              cpi R24,7
 0F4A 09F0              breq X93
 0F4C 5DC0              xjmp L241
 0F4E           X93:
 0F4E           X79:
 0F4E                   .dbline 676
 0F4E           ;   {
 0F4E                   .dbline 677
 0F4E           ;     DisPage=PASSWORDPAGE;
 0F4E 89E0              ldi R24,9
 0F50 80930000          sts _DisPage,R24
 0F54                   .dbline 679
 0F54           ;       //EEPROMReadBytes(PasswordAddr,&PasswordTab,6);
 0F54           ;     if((PasswordTab[0]>9)||(PasswordTab[1]>9)||(PasswordTab[2]>9)||(PasswordTab[3]>9)||(PasswordTab[4]>9)||(PasswordTab[5]>9))
 0F54 20900000          lds R2,_PasswordTab
 0F58 8215              cp R24,R2
 0F5A A0F0              brlo L254
 0F5C           X80:
 0F5C 20900100          lds R2,_PasswordTab+1
 0F60 8215              cp R24,R2
 0F62 80F0              brlo L254
 0F64           X81:
 0F64 20900200          lds R2,_PasswordTab+2
 0F68 8215              cp R24,R2
 0F6A 60F0              brlo L254
 0F6C           X82:
 0F6C 20900300          lds R2,_PasswordTab+3
 0F70 8215              cp R24,R2
 0F72 40F0              brlo L254
 0F74           X83:
 0F74 20900400          lds R2,_PasswordTab+4
 0F78 8215              cp R24,R2
 0F7A 20F0              brlo L254
 0F7C           X84:
 0F7C 20900500          lds R2,_PasswordTab+5
 0F80 8215              cp R24,R2
 0F82 68F4              brsh L243
 0F84           X85:
 0F84           L254:
 0F84                   .dbline 680
 0F84           ;     {
 0F84                   .dbline 681
 0F84           ;       PasswordTab[0]=6;
 0F84 86E0              ldi R24,6
 0F86 80930000          sts _PasswordTab,R24
 0F8A                   .dbline 682
 0F8A           ;         PasswordTab[1]=6;
 0F8A 80930100          sts _PasswordTab+1,R24
 0F8E                   .dbline 683
 0F8E           ;         PasswordTab[2]=6;
 0F8E 80930200          sts _PasswordTab+2,R24
 0F92                   .dbline 684
 0F92           ;         PasswordTab[3]=6;
 0F92 80930300          sts _PasswordTab+3,R24
 0F96                   .dbline 685
 0F96           ;         PasswordTab[4]=6;
 0F96 80930400          sts _PasswordTab+4,R24
 0F9A                   .dbline 686
 0F9A           ;         PasswordTab[5]=6;
 0F9A 80930500          sts _PasswordTab+5,R24
 0F9E                   .dbline 688
 0F9E           ;         //EEPROMWriteBytes(PasswordAddr,&PasswordTab,6);
 0F9E           ;     }
 0F9E           L243:
 0F9E                   .dbline 689
 0F9E           ;       cut_pic(0,27,0,0,269,325,300,100);
 0F9E 84E6              ldi R24,100
 0FA0 90E0              ldi R25,0
 0FA2 9B87              std y+11,R25
 0FA4 8A87              std y+10,R24
 0FA6 8CE2              ldi R24,300
 0FA8 91E0              ldi R25,1
 0FAA 9987              std y+9,R25
 0FAC 8887              std y+8,R24
 0FAE 85E4              ldi R24,69
 0FB0 9F83              std y+7,R25
 0FB2 8E83              std y+6,R24
 0FB4 8DE0              ldi R24,13
 0FB6 9D83              std y+5,R25
 0FB8 8C83              std y+4,R24
 0FBA 2224              clr R2
 0FBC 3324              clr R3
 0FBE 3B82              std y+3,R3
 0FC0 2A82              std y+2,R2
 0FC2 3982              std y+1,R3
 0FC4 2882              std y+0,R2
 0FC6 2BE1              ldi R18,27
 0FC8 0027              clr R16
 0FCA 0E940000          xcall _cut_pic
 0FCE                   .dbline 690
 0FCE           ;       text_ptr=0;
 0FCE 2224              clr R2
 0FD0 20920000          sts _text_ptr,R2
 0FD4                   .dbline 691
 0FD4           ;       Text[0]=' ';
 0FD4 80E2              ldi R24,32
 0FD6 80930000          sts _Text,R24
 0FDA                   .dbline 692
 0FDA           ;       Text[1]=' ';
 0FDA 80930100          sts _Text+1,R24
 0FDE                   .dbline 693
 0FDE           ;       Text[2]=' ';
 0FDE 80930200          sts _Text+2,R24
 0FE2                   .dbline 694
 0FE2           ;       Text[3]=' ';
 0FE2 80930300          sts _Text+3,R24
 0FE6                   .dbline 695
 0FE6           ;       Text[4]=' ';
 0FE6 80930400          sts _Text+4,R24
 0FEA                   .dbline 696
 0FEA           ;       Text[5]=' ';
 0FEA 80930500          sts _Text+5,R24
 0FEE                   .dbline 697
 0FEE           ;       Text[6]='\0';
 0FEE 20920600          sts _Text+6,R2
 0FF2                   .dbline 698
 0FF2           ;       Text[7]='*';
 0FF2 8AE2              ldi R24,42
 0FF4 80930700          sts _Text+7,R24
 0FF8                   .dbline 699
 0FF8           ;     Text[8]='\0';
 0FF8 20920800          sts _Text+8,R2
 0FFC                   .dbline 700
 0FFC           ;       Text[9]=' ';
 0FFC 80E2              ldi R24,32
 0FFE 80930900          sts _Text+9,R24
 1002                   .dbline 701
 1002           ;     Text[10]='\0';
 1002 20920A00          sts _Text+10,R2
 1006                   .dbline 702
 1006           ;   }
 1006 05C0              xjmp L242
 1008           L241:
 1008                   .dbline 703
 1008           ;   else if(KeyID==8)
 1008 80910000          lds R24,_KeyID
 100C 8830              cpi R24,8
 100E 09F4              brne L270
 1010           X86:
 1010                   .dbline 704
 1010           ;   {
 1010                   .dbline 705
 1010           ;     DisWelcome();
 1010 4ADA              xcall _DisWelcome
 1012                   .dbline 706
 1012           ;   }
 1012           L270:
 1012           L242:
 1012           L226:
 1012           L224:
 1012           L222:
 1012           L216:
 1012           L214:
 1012           L182:
 1012                   .dbline -2
 1012           L176:
 1012                   .dbline 0 ; func end
 1012 2C96              adiw R28,12
 1014 0C940000          xjmp pop_xgsetF00C
 1018                   .dbend
 1018                   .dbfunc e StartKeyUp _StartKeyUp fV
                        .even
 1018           _StartKeyUp::
 1018                   .dbline -1
 1018                   .dbline 709
 1018           ; }
 1018           ; void StartKeyUp(void)
 1018           ; {
 1018                   .dbline 710
 1018           ;   if(DisPage!=STARTPAGE) return;
 1018 80910000          lds R24,_DisPage
 101C 8130              cpi R24,1
 101E 09F0              breq L273
 1020           X94:
 1020                   .dbline 710
 1020 22C0              xjmp L272
 1022           L273:
 1022                   .dbline 711
 1022           ;   if(KeyID==1)
 1022 80910000          lds R24,_KeyID
 1026 8130              cpi R24,1
 1028 B9F4              brne L275
 102A           X95:
 102A                   .dbline 712
 102A           ;   {
 102A                   .dbline 713
 102A           ;     Chack_screen();
 102A 0E940000          xcall _Chack_screen
 102E           L277:
 102E                   .dbline 714
 102E           ;     while((R_buf[1]!=0xE4)||(R_buf[2]!=0x4F)||(R_buf[3]!=0x4B));
 102E           L278:
 102E                   .dbline 714
 102E 80910100          lds R24,_R_buf+1
 1032 843E              cpi R24,228
 1034 E1F7              brne L277
 1036           X96:
 1036 80910200          lds R24,_R_buf+2
 103A 8F34              cpi R24,79
 103C C1F7              brne L277
 103E           X97:
 103E 80910300          lds R24,_R_buf+3
 1042 8B34              cpi R24,75
 1044 A1F7              brne L277
 1046           X98:
 1046                   .dbline 715
 1046           ;       Delay_MS(100);
 1046 04E6              ldi R16,100
 1048 10E0              ldi R17,0
 104A 0E940000          xcall _Delay_MS
 104E                   .dbline 716
 104E           ;       DisWelcome();
 104E 2BDA              xcall _DisWelcome
 1050                   .dbline 717
 1050           ;       DisPage=WELCOMEPAGE;
 1050 2224              clr R2
 1052 20920000          sts _DisPage,R2
 1056                   .dbline 718
 1056           ;   }
 1056 07C0              xjmp L276
 1058           L275:
 1058                   .dbline 719
 1058           ;    else if(KeyID==8)
 1058 80910000          lds R24,_KeyID
 105C 8830              cpi R24,8
 105E 19F4              brne L283
 1060           X99:
 1060                   .dbline 720
 1060           ;   {
 1060                   .dbline 721
 1060           ;       DisPage=WELCOMEPAGE;
 1060 2224              clr R2
 1062 20920000          sts _DisPage,R2
 1066                   .dbline 722
 1066           ;   }
 1066           L283:
 1066           L276:
 1066                   .dbline -2
 1066           L272:
 1066                   .dbline 0 ; func end
 1066 0895              ret
 1068                   .dbend
 1068                   .dbfunc e TimeKeyDown _TimeKeyDown fV
                        .even
 1068           _TimeKeyDown::
 1068 0E940000          xcall push_xgset300C
 106C 2C97              sbiw R28,12
 106E                   .dbline -1
 106E                   .dbline 726
 106E           ; }
 106E           ; 
 106E           ; void TimeKeyDown(void)
 106E           ; {
 106E                   .dbline 727
 106E           ;   if(DisPage!=TIMEPAGE) return;
 106E 80910000          lds R24,_DisPage
 1072 8230              cpi R24,2
 1074 09F0              breq L286
 1076           X100:
 1076                   .dbline 727
 1076 15C2              xjmp L285
 1078           L286:
 1078                   .dbline 728
 1078           ;   KeyID=GetKeyID(Time_Key,13); 
 1078 2DE0              ldi R18,13
 107A 00E0              ldi R16,<_Time_Key
 107C 10E0              ldi R17,>_Time_Key
 107E 5FDB              xcall _GetKeyID
 1080 00930000          sts _KeyID,R16
 1084                   .dbline 729
 1084           ;   if(KeyID<10)
 1084 0A30              cpi R16,10
 1086 08F0              brlo X129
 1088 D1C0              xjmp L288
 108A           X129:
 108A           X101:
 108A                   .dbline 730
 108A           ;   {
 108A                   .dbline 731
 108A           ;     if((text_ptr==3)&&(KeyID>1));
 108A 80910000          lds R24,_text_ptr
 108E 8330              cpi R24,3
 1090 21F4              brne L290
 1092           X102:
 1092 81E0              ldi R24,1
 1094 8017              cp R24,R16
 1096 08F4              brsh L290
 1098           X103:
 1098                   .dbline 731
 1098 04C2              xjmp L289
 109A           L290:
 109A                   .dbline 732
 109A           ;       else if((text_ptr==4)&&(Text[3]=='1')&&(KeyID>2));
 109A 80910000          lds R24,_text_ptr
 109E 8430              cpi R24,4
 10A0 51F4              brne L292
 10A2           X104:
 10A2 80910300          lds R24,_Text+3
 10A6 8133              cpi R24,49
 10A8 31F4              brne L292
 10AA           X105:
 10AA 82E0              ldi R24,2
 10AC 20900000          lds R2,_KeyID
 10B0 8215              cp R24,R2
 10B2 08F4              brsh L292
 10B4           X106:
 10B4                   .dbline 732
 10B4 F6C1              xjmp L289
 10B6           L292:
 10B6                   .dbline 733
 10B6           ;       else if((text_ptr==6)&&(KeyID>3));
 10B6 80910000          lds R24,_text_ptr
 10BA 8630              cpi R24,6
 10BC 31F4              brne L295
 10BE           X107:
 10BE 83E0              ldi R24,3
 10C0 20900000          lds R2,_KeyID
 10C4 8215              cp R24,R2
 10C6 08F4              brsh L295
 10C8           X108:
 10C8                   .dbline 733
 10C8 ECC1              xjmp L289
 10CA           L295:
 10CA                   .dbline 734
 10CA           ;       else if((text_ptr==7)&&(Text[6]=='3')&&(KeyID>1)); 
 10CA 80910000          lds R24,_text_ptr
 10CE 8730              cpi R24,7
 10D0 51F4              brne L297
 10D2           X109:
 10D2 80910600          lds R24,_Text+6
 10D6 8333              cpi R24,51
 10D8 31F4              brne L297
 10DA           X110:
 10DA 81E0              ldi R24,1
 10DC 20900000          lds R2,_KeyID
 10E0 8215              cp R24,R2
 10E2 08F4              brsh L297
 10E4           X111:
 10E4                   .dbline 734
 10E4 DEC1              xjmp L289
 10E6           L297:
 10E6                   .dbline 735
 10E6           ;     else if((text_ptr==9)&&(KeyID>2));
 10E6 80910000          lds R24,_text_ptr
 10EA 8930              cpi R24,9
 10EC 31F4              brne L300
 10EE           X112:
 10EE 82E0              ldi R24,2
 10F0 20900000          lds R2,_KeyID
 10F4 8215              cp R24,R2
 10F6 08F4              brsh L300
 10F8           X113:
 10F8                   .dbline 735
 10F8 D4C1              xjmp L289
 10FA           L300:
 10FA                   .dbline 736
 10FA           ;       else if((text_ptr==10)&&(Text[9]=='2')&&(KeyID>3)); 
 10FA 80910000          lds R24,_text_ptr
 10FE 8A30              cpi R24,10
 1100 51F4              brne L302
 1102           X114:
 1102 80910900          lds R24,_Text+9
 1106 8233              cpi R24,50
 1108 31F4              brne L302
 110A           X115:
 110A 83E0              ldi R24,3
 110C 20900000          lds R2,_KeyID
 1110 8215              cp R24,R2
 1112 08F4              brsh L302
 1114           X116:
 1114                   .dbline 736
 1114 C6C1              xjmp L289
 1116           L302:
 1116                   .dbline 737
 1116           ;       else if((text_ptr==12)&&(KeyID>5));
 1116 80910000          lds R24,_text_ptr
 111A 8C30              cpi R24,12
 111C 31F4              brne L305
 111E           X117:
 111E 85E0              ldi R24,5
 1120 20900000          lds R2,_KeyID
 1124 8215              cp R24,R2
 1126 08F4              brsh L305
 1128           X118:
 1128                   .dbline 737
 1128 BCC1              xjmp L289
 112A           L305:
 112A                   .dbline 738
 112A           ;       else if((text_ptr==15)&&(KeyID>5));
 112A 80910000          lds R24,_text_ptr
 112E 8F30              cpi R24,15
 1130 31F4              brne L307
 1132           X119:
 1132 85E0              ldi R24,5
 1134 20900000          lds R2,_KeyID
 1138 8215              cp R24,R2
 113A 08F4              brsh L307
 113C           X120:
 113C                   .dbline 738
 113C B2C1              xjmp L289
 113E           L307:
 113E                   .dbline 740
 113E           ;       else
 113E           ;       {
 113E                   .dbline 741
 113E           ;         cut_pic(0,14,Time_Key[KeyID].XS-28,Time_Key[KeyID].YS-100,Time_Key[KeyID].XE-28,Time_Key[KeyID].YE-100,Time_Key[KeyID].XS,Time_Key[KeyID].YS);
 113E 20900000          lds R2,_KeyID
 1142 3324              clr R3
 1144 220C              lsl R2
 1146 331C              rol R3
 1148 220C              lsl R2
 114A 331C              rol R3
 114C 220C              lsl R2
 114E 331C              rol R3
 1150 2101              movw R4,R2
 1152 80E0              ldi R24,<_Time_Key+2
 1154 90E0              ldi R25,>_Time_Key+2
 1156 F101              movw R30,R2
 1158 E80F              add R30,R24
 115A F91F              adc R31,R25
 115C 2790              elpm R2,Z+
 115E 3690              elpm R3,Z
 1160 3B86              std y+11,R3
 1162 2A86              std y+10,R2
 1164 80E0              ldi R24,<_Time_Key
 1166 90E0              ldi R25,>_Time_Key
 1168 F201              movw R30,R4
 116A E80F              add R30,R24
 116C F91F              adc R31,R25
 116E 4791              elpm R20,Z+
 1170 5691              elpm R21,Z
 1172 5987              std y+9,R21
 1174 4887              std y+8,R20
 1176 80E0              ldi R24,<_Time_Key+6
 1178 90E0              ldi R25,>_Time_Key+6
 117A F201              movw R30,R4
 117C E80F              add R30,R24
 117E F91F              adc R31,R25
 1180 8791              elpm R24,Z+
 1182 9691              elpm R25,Z
 1184 8456              subi R24,100
 1186 9040              sbci R25,0
 1188 9F83              std y+7,R25
 118A 8E83              std y+6,R24
 118C 80E0              ldi R24,<_Time_Key+4
 118E 90E0              ldi R25,>_Time_Key+4
 1190 F201              movw R30,R4
 1192 E80F              add R30,R24
 1194 F91F              adc R31,R25
 1196 8791              elpm R24,Z+
 1198 9691              elpm R25,Z
 119A 4C97              sbiw R24,28
 119C 9D83              std y+5,R25
 119E 8C83              std y+4,R24
 11A0 80E0              ldi R24,<_Time_Key+2
 11A2 90E0              ldi R25,>_Time_Key+2
 11A4 F201              movw R30,R4
 11A6 E80F              add R30,R24
 11A8 F91F              adc R31,R25
 11AA 8791              elpm R24,Z+
 11AC 9691              elpm R25,Z
 11AE 8456              subi R24,100
 11B0 9040              sbci R25,0
 11B2 9B83              std y+3,R25
 11B4 8A83              std y+2,R24
 11B6 CA01              movw R24,R20
 11B8 4C97              sbiw R24,28
 11BA 9983              std y+1,R25
 11BC 8883              std y+0,R24
 11BE 2EE0              ldi R18,14
 11C0 0027              clr R16
 11C2 0E940000          xcall _cut_pic
 11C6                   .dbline 742
 11C6           ;         Text[text_ptr]=KeyID+'0';
 11C6 80E0              ldi R24,<_Text
 11C8 90E0              ldi R25,>_Text
 11CA E0910000          lds R30,_text_ptr
 11CE FF27              clr R31
 11D0 E80F              add R30,R24
 11D2 F91F              adc R31,R25
 11D4 80910000          lds R24,_KeyID
 11D8 805D              subi R24,208    ; addi 48
 11DA 8083              std z+0,R24
 11DC                   .dbline 743
 11DC           ;         Text[18]=Text[text_ptr];
 11DC 80E0              ldi R24,<_Text
 11DE 90E0              ldi R25,>_Text
 11E0 E0910000          lds R30,_text_ptr
 11E4 FF27              clr R31
 11E6 E80F              add R30,R24
 11E8 F91F              adc R31,R25
 11EA 2080              ldd R2,z+0
 11EC 20921200          sts _Text+18,R2
 11F0                   .dbline 744
 11F0           ;       print_texts(335+text_ptr*12,156,0,0xD1,2,0xffff,0x04bb,&Text[18]);
 11F0 80E0              ldi R24,<_Text+18
 11F2 90E0              ldi R25,>_Text+18
 11F4 9B87              std y+11,R25
 11F6 8A87              std y+10,R24
 11F8 8BEB              ldi R24,1211
 11FA 94E0              ldi R25,4
 11FC 9987              std y+9,R25
 11FE 8887              std y+8,R24
 1200 8FEF              ldi R24,65535
 1202 9FEF              ldi R25,255
 1204 9F83              std y+7,R25
 1206 8E83              std y+6,R24
 1208 82E0              ldi R24,2
 120A 8C83              std y+4,R24
 120C 81ED              ldi R24,209
 120E 8A83              std y+2,R24
 1210 2224              clr R2
 1212 2882              std y+0,R2
 1214 2CE9              ldi R18,156
 1216 30E0              ldi R19,0
 1218 10910000          lds R17,_text_ptr
 121C 0CE0              ldi R16,12
 121E 0103              mulsu R16,R17
 1220 8001              movw R16,R0
 1222 015B              subi R16,177  ; offset = 335
 1224 1E4F              sbci R17,254
 1226 0E940000          xcall _print_texts
 122A                   .dbline 745
 122A           ;       }
 122A                   .dbline 747
 122A           ;       
 122A           ;   }
 122A 3BC1              xjmp L289
 122C           L288:
 122C                   .dbline 748
 122C           ;   else if(KeyID==10)
 122C 80910000          lds R24,_KeyID
 1230 8A30              cpi R24,10
 1232 09F0              breq X130
 1234 9CC0              xjmp L315
 1236           X130:
 1236           X121:
 1236                   .dbline 749
 1236           ;   {
 1236                   .dbline 750
 1236           ;     cut_pic(0,14,Time_Key[KeyID].XS-28,Time_Key[KeyID].YS-100,Time_Key[KeyID].XE-28,Time_Key[KeyID].YE-100,Time_Key[KeyID].XS,Time_Key[KeyID].YS);
 1236 A82E              mov R10,R24
 1238 BB24              clr R11
 123A AA0C              lsl R10
 123C BB1C              rol R11
 123E AA0C              lsl R10
 1240 BB1C              rol R11
 1242 AA0C              lsl R10
 1244 BB1C              rol R11
 1246 80E0              ldi R24,<_Time_Key+2
 1248 90E0              ldi R25,>_Time_Key+2
 124A F501              movw R30,R10
 124C E80F              add R30,R24
 124E F91F              adc R31,R25
 1250 2790              elpm R2,Z+
 1252 3690              elpm R3,Z
 1254 3B86              std y+11,R3
 1256 2A86              std y+10,R2
 1258 80E0              ldi R24,<_Time_Key
 125A 90E0              ldi R25,>_Time_Key
 125C F501              movw R30,R10
 125E E80F              add R30,R24
 1260 F91F              adc R31,R25
 1262 4791              elpm R20,Z+
 1264 5691              elpm R21,Z
 1266 5987              std y+9,R21
 1268 4887              std y+8,R20
 126A 80E0              ldi R24,<_Time_Key+6
 126C 90E0              ldi R25,>_Time_Key+6
 126E F501              movw R30,R10
 1270 E80F              add R30,R24
 1272 F91F              adc R31,R25
 1274 8791              elpm R24,Z+
 1276 9691              elpm R25,Z
 1278 8456              subi R24,100
 127A 9040              sbci R25,0
 127C 9F83              std y+7,R25
 127E 8E83              std y+6,R24
 1280 80E0              ldi R24,<_Time_Key+4
 1282 90E0              ldi R25,>_Time_Key+4
 1284 F501              movw R30,R10
 1286 E80F              add R30,R24
 1288 F91F              adc R31,R25
 128A 8791              elpm R24,Z+
 128C 9691              elpm R25,Z
 128E 4C97              sbiw R24,28
 1290 9D83              std y+5,R25
 1292 8C83              std y+4,R24
 1294 80E0              ldi R24,<_Time_Key+2
 1296 90E0              ldi R25,>_Time_Key+2
 1298 F501              movw R30,R10
 129A E80F              add R30,R24
 129C F91F              adc R31,R25
 129E 8791              elpm R24,Z+
 12A0 9691              elpm R25,Z
 12A2 8456              subi R24,100
 12A4 9040              sbci R25,0
 12A6 9B83              std y+3,R25
 12A8 8A83              std y+2,R24
 12AA CA01              movw R24,R20
 12AC 4C97              sbiw R24,28
 12AE 9983              std y+1,R25
 12B0 8883              std y+0,R24
 12B2 2EE0              ldi R18,14
 12B4 0027              clr R16
 12B6 0E940000          xcall _cut_pic
 12BA                   .dbline 751
 12BA           ;     if(text_ptr<16) text_ptr++;
 12BA 80910000          lds R24,_text_ptr
 12BE 8031              cpi R24,16
 12C0 20F4              brsh L321
 12C2           X122:
 12C2                   .dbline 751
 12C2 8F5F              subi R24,255    ; addi 1
 12C4 80930000          sts _text_ptr,R24
 12C8 03C0              xjmp L322
 12CA           L321:
 12CA                   .dbline 752
 12CA           ;       else text_ptr=0;
 12CA 2224              clr R2
 12CC 20920000          sts _text_ptr,R2
 12D0           L322:
 12D0                   .dbline 753
 12D0           ;       if((text_ptr==2)||(text_ptr==5)||(text_ptr==8)||(text_ptr==11)||(text_ptr==14)) text_ptr++;
 12D0 40910000          lds R20,_text_ptr
 12D4 4230              cpi R20,2
 12D6 41F0              breq L328
 12D8           X123:
 12D8 4530              cpi R20,5
 12DA 31F0              breq L328
 12DC           X124:
 12DC 4830              cpi R20,8
 12DE 21F0              breq L328
 12E0           X125:
 12E0 4B30              cpi R20,11
 12E2 11F0              breq L328
 12E4           X126:
 12E4 4E30              cpi R20,14
 12E6 29F4              brne L323
 12E8           X127:
 12E8           L328:
 12E8                   .dbline 753
 12E8 80910000          lds R24,_text_ptr
 12EC 8F5F              subi R24,255    ; addi 1
 12EE 80930000          sts _text_ptr,R24
 12F2           L323:
 12F2                   .dbline 754
 12F2           ;       Text[18]=Text[text_ptr];
 12F2 80E0              ldi R24,<_Text
 12F4 90E0              ldi R25,>_Text
 12F6 E0910000          lds R30,_text_ptr
 12FA FF27              clr R31
 12FC E80F              add R30,R24
 12FE F91F              adc R31,R25
 1300 2080              ldd R2,z+0
 1302 20921200          sts _Text+18,R2
 1306                   .dbline 755
 1306           ;       print_texts(335,156,0,0xD1,2,0x04bb,0xffff,Text);
 1306 9B87              std y+11,R25
 1308 8A87              std y+10,R24
 130A 8FEF              ldi R24,65535
 130C 9FEF              ldi R25,255
 130E 9987              std y+9,R25
 1310 8887              std y+8,R24
 1312 8BEB              ldi R24,1211
 1314 94E0              ldi R25,4
 1316 9F83              std y+7,R25
 1318 8E83              std y+6,R24
 131A 82E0              ldi R24,2
 131C 8C83              std y+4,R24
 131E 81ED              ldi R24,209
 1320 8A83              std y+2,R24
 1322 2224              clr R2
 1324 2882              std y+0,R2
 1326 2CE9              ldi R18,156
 1328 30E0              ldi R19,0
 132A 0FE4              ldi R16,335
 132C 11E0              ldi R17,1
 132E 0E940000          xcall _print_texts
 1332                   .dbline 756
 1332           ;     print_texts(335+text_ptr*12,156,0,0xD1,2,0xffff,0x04bb,&Text[18]);
 1332 80E0              ldi R24,<_Text+18
 1334 90E0              ldi R25,>_Text+18
 1336 9B87              std y+11,R25
 1338 8A87              std y+10,R24
 133A 8BEB              ldi R24,1211
 133C 94E0              ldi R25,4
 133E 9987              std y+9,R25
 1340 8887              std y+8,R24
 1342 8FEF              ldi R24,65535
 1344 9FEF              ldi R25,255
 1346 9F83              std y+7,R25
 1348 8E83              std y+6,R24
 134A 82E0              ldi R24,2
 134C 8C83              std y+4,R24
 134E 81ED              ldi R24,209
 1350 8A83              std y+2,R24
 1352 2224              clr R2
 1354 2882              std y+0,R2
 1356 2CE9              ldi R18,156
 1358 30E0              ldi R19,0
 135A 10910000          lds R17,_text_ptr
 135E 0CE0              ldi R16,12
 1360 0103              mulsu R16,R17
 1362 8001              movw R16,R0
 1364 015B              subi R16,177  ; offset = 335
 1366 1E4F              sbci R17,254
 1368 0E940000          xcall _print_texts
 136C                   .dbline 757
 136C           ;   }
 136C 9AC0              xjmp L316
 136E           L315:
 136E                   .dbline 758
 136E           ;   else if(KeyID==11)
 136E 80910000          lds R24,_KeyID
 1372 8B30              cpi R24,11
 1374 09F0              breq X131
 1376 95C0              xjmp L331
 1378           X131:
 1378           X128:
 1378                   .dbline 759
 1378           ;   {
 1378                   .dbline 760
 1378           ;     cut_pic(0,14,Time_Key[KeyID].XS-28,Time_Key[KeyID].YS-100,Time_Key[KeyID].XE-28,Time_Key[KeyID].YE-100,Time_Key[KeyID].XS,Time_Key[KeyID].YS);
 1378 A82E              mov R10,R24
 137A BB24              clr R11
 137C AA0C              lsl R10
 137E BB1C              rol R11
 1380 AA0C              lsl R10
 1382 BB1C              rol R11
 1384 AA0C              lsl R10
 1386 BB1C              rol R11
 1388 80E0              ldi R24,<_Time_Key+2
 138A 90E0              ldi R25,>_Time_Key+2
 138C F501              movw R30,R10
 138E E80F              add R30,R24
 1390 F91F              adc R31,R25
 1392 2790              elpm R2,Z+
 1394 3690              elpm R3,Z
 1396 3B86              std y+11,R3
 1398 2A86              std y+10,R2
 139A 80E0              ldi R24,<_Time_Key
 139C 90E0              ldi R25,>_Time_Key
 139E F501              movw R30,R10
 13A0 E80F              add R30,R24
 13A2 F91F              adc R31,R25
 13A4 4791              elpm R20,Z+
 13A6 5691              elpm R21,Z
 13A8 5987              std y+9,R21
 13AA 4887              std y+8,R20
 13AC 80E0              ldi R24,<_Time_Key+6
 13AE 90E0              ldi R25,>_Time_Key+6
 13B0 F501              movw R30,R10
 13B2 E80F              add R30,R24
 13B4 F91F              adc R31,R25
 13B6 8791              elpm R24,Z+
 13B8 9691              elpm R25,Z
 13BA 8456              subi R24,100
 13BC 9040              sbci R25,0
 13BE 9F83              std y+7,R25
 13C0 8E83              std y+6,R24
 13C2 80E0              ldi R24,<_Time_Key+4
 13C4 90E0              ldi R25,>_Time_Key+4
 13C6 F501              movw R30,R10
 13C8 E80F              add R30,R24
 13CA F91F              adc R31,R25
 13CC 8791              elpm R24,Z+
 13CE 9691              elpm R25,Z
 13D0 4C97              sbiw R24,28
 13D2 9D83              std y+5,R25
 13D4 8C83              std y+4,R24
 13D6 80E0              ldi R24,<_Time_Key+2
 13D8 90E0              ldi R25,>_Time_Key+2
 13DA F501              movw R30,R10
 13DC E80F              add R30,R24
 13DE F91F              adc R31,R25
 13E0 8791              elpm R24,Z+
 13E2 9691              elpm R25,Z
 13E4 8456              subi R24,100
 13E6 9040              sbci R25,0
 13E8 9B83              std y+3,R25
 13EA 8A83              std y+2,R24
 13EC CA01              movw R24,R20
 13EE 4C97              sbiw R24,28
 13F0 9983              std y+1,R25
 13F2 8883              std y+0,R24
 13F4 2EE0              ldi R18,14
 13F6 0027              clr R16
 13F8 0E940000          xcall _cut_pic
 13FC                   .dbline 761
 13FC           ;       datetime[0]=((Text[0]-'0')<<4)|(Text[1]-'0');
 13FC 80910100          lds R24,_Text+1
 1400 8053              subi R24,48
 1402 90910000          lds R25,_Text
 1406 9053              subi R25,48
 1408 9F70              andi R25,#0x0F
 140A 9295              swap R25
 140C 982B              or R25,R24
 140E 90930000          sts _datetime,R25
 1412                   .dbline 762
 1412           ;       datetime[1]=((Text[3]-'0')<<4)|(Text[4]-'0');
 1412 80910400          lds R24,_Text+4
 1416 8053              subi R24,48
 1418 90910300          lds R25,_Text+3
 141C 9053              subi R25,48
 141E 9F70              andi R25,#0x0F
 1420 9295              swap R25
 1422 982B              or R25,R24
 1424 90930100          sts _datetime+1,R25
 1428                   .dbline 763
 1428           ;       datetime[2]=((Text[6]-'0')<<4)|(Text[7]-'0');
 1428 80910700          lds R24,_Text+7
 142C 8053              subi R24,48
 142E 90910600          lds R25,_Text+6
 1432 9053              subi R25,48
 1434 9F70              andi R25,#0x0F
 1436 9295              swap R25
 1438 982B              or R25,R24
 143A 90930200          sts _datetime+2,R25
 143E                   .dbline 764
 143E           ;   datetime[4]=((Text[9]-'0')<<4)|(Text[10]-'0');
 143E 80910A00          lds R24,_Text+10
 1442 8053              subi R24,48
 1444 90910900          lds R25,_Text+9
 1448 9053              subi R25,48
 144A 9F70              andi R25,#0x0F
 144C 9295              swap R25
 144E 982B              or R25,R24
 1450 90930400          sts _datetime+4,R25
 1454                   .dbline 765
 1454           ;       datetime[5]=((Text[12]-'0')<<4)|(Text[13]-'0');
 1454 80910D00          lds R24,_Text+13
 1458 8053              subi R24,48
 145A 90910C00          lds R25,_Text+12
 145E 9053              subi R25,48
 1460 9F70              andi R25,#0x0F
 1462 9295              swap R25
 1464 982B              or R25,R24
 1466 90930500          sts _datetime+5,R25
 146A                   .dbline 766
 146A           ;       datetime[6]=((Text[15]-'0')<<4)|(Text[16]-'0');
 146A 80911000          lds R24,_Text+16
 146E 8053              subi R24,48
 1470 90910F00          lds R25,_Text+15
 1474 9053              subi R25,48
 1476 9F70              andi R25,#0x0F
 1478 9295              swap R25
 147A 982B              or R25,R24
 147C 90930600          sts _datetime+6,R25
 1480                   .dbline 767
 1480           ;       clock_set(datetime[0],datetime[1],datetime[2],datetime[4],datetime[5],datetime[6]);
 1480 292E              mov R2,R25
 1482 2E82              std y+6,R2
 1484 20900500          lds R2,_datetime+5
 1488 2C82              std y+4,R2
 148A 20900400          lds R2,_datetime+4
 148E 2A82              std y+2,R2
 1490 20900200          lds R2,_datetime+2
 1494 2882              std y+0,R2
 1496 20910100          lds R18,_datetime+1
 149A 00910000          lds R16,_datetime
 149E 0E940000          xcall _clock_set
 14A2                   .dbline 768
 14A2           ;   }
 14A2           L331:
 14A2           L316:
 14A2           L289:
 14A2                   .dbline -2
 14A2           L285:
 14A2                   .dbline 0 ; func end
 14A2 2C96              adiw R28,12
 14A4 0C940000          xjmp pop_xgset300C
 14A8                   .dbend
 14A8                   .dbfunc e TimeKeyUp _TimeKeyUp fV
                        .even
 14A8           _TimeKeyUp::
 14A8 2C97              sbiw R28,12
 14AA                   .dbline -1
 14AA                   .dbline 771
 14AA           ; }
 14AA           ; void TimeKeyUp(void)
 14AA           ; {
 14AA                   .dbline 772
 14AA           ;   if(DisPage!=TIMEPAGE) return;
 14AA 80910000          lds R24,_DisPage
 14AE 8230              cpi R24,2
 14B0 09F0              breq L359
 14B2           X132:
 14B2                   .dbline 772
 14B2 11C1              xjmp L358
 14B4           L359:
 14B4                   .dbline 773
 14B4           ;   if(KeyID<12)
 14B4 80910000          lds R24,_KeyID
 14B8 8C30              cpi R24,12
 14BA D0F4              brsh L361
 14BC           X133:
 14BC                   .dbline 774
 14BC           ;   {
 14BC                   .dbline 775
 14BC           ;    cut_pic(0,14,0,90,269,330,300,190);
 14BC 8EEB              ldi R24,190
 14BE 90E0              ldi R25,0
 14C0 9B87              std y+11,R25
 14C2 8A87              std y+10,R24
 14C4 8CE2              ldi R24,300
 14C6 91E0              ldi R25,1
 14C8 9987              std y+9,R25
 14CA 8887              std y+8,R24
 14CC 8AE4              ldi R24,74
 14CE 9F83              std y+7,R25
 14D0 8E83              std y+6,R24
 14D2 8DE0              ldi R24,13
 14D4 9D83              std y+5,R25
 14D6 8C83              std y+4,R24
 14D8 8AE5              ldi R24,90
 14DA 90E0              ldi R25,0
 14DC 9B83              std y+3,R25
 14DE 8A83              std y+2,R24
 14E0 2224              clr R2
 14E2 3324              clr R3
 14E4 3982              std y+1,R3
 14E6 2882              std y+0,R2
 14E8 2EE0              ldi R18,14
 14EA 0027              clr R16
 14EC 0E940000          xcall _cut_pic
 14F0                   .dbline 776
 14F0           ;   }
 14F0           L361:
 14F0                   .dbline 777
 14F0           ;   if(KeyID<10)
 14F0 80910000          lds R24,_KeyID
 14F4 8A30              cpi R24,10
 14F6 08F0              brlo X168
 14F8 DBC0              xjmp L363
 14FA           X168:
 14FA           X134:
 14FA                   .dbline 778
 14FA           ;   {
 14FA                   .dbline 779
 14FA           ;     if((text_ptr==3)&&(KeyID>1));
 14FA 80910000          lds R24,_text_ptr
 14FE 8330              cpi R24,3
 1500 31F4              brne L365
 1502           X135:
 1502 81E0              ldi R24,1
 1504 20900000          lds R2,_KeyID
 1508 8215              cp R24,R2
 150A 08F4              brsh L365
 150C           X136:
 150C                   .dbline 779
 150C E4C0              xjmp L364
 150E           L365:
 150E                   .dbline 780
 150E           ;       else if((text_ptr==4)&&(Text[3]=='1')&&(KeyID>2));
 150E 80910000          lds R24,_text_ptr
 1512 8430              cpi R24,4
 1514 51F4              brne L367
 1516           X137:
 1516 80910300          lds R24,_Text+3
 151A 8133              cpi R24,49
 151C 31F4              brne L367
 151E           X138:
 151E 82E0              ldi R24,2
 1520 20900000          lds R2,_KeyID
 1524 8215              cp R24,R2
 1526 08F4              brsh L367
 1528           X139:
 1528                   .dbline 780
 1528 D6C0              xjmp L364
 152A           L367:
 152A                   .dbline 781
 152A           ;       else if((text_ptr==6)&&(KeyID>3));
 152A 80910000          lds R24,_text_ptr
 152E 8630              cpi R24,6
 1530 31F4              brne L370
 1532           X140:
 1532 83E0              ldi R24,3
 1534 20900000          lds R2,_KeyID
 1538 8215              cp R24,R2
 153A 08F4              brsh L370
 153C           X141:
 153C                   .dbline 781
 153C CCC0              xjmp L364
 153E           L370:
 153E                   .dbline 782
 153E           ;       else if((text_ptr==7)&&(Text[6]=='3')&&(KeyID>1)); 
 153E 80910000          lds R24,_text_ptr
 1542 8730              cpi R24,7
 1544 51F4              brne L372
 1546           X142:
 1546 80910600          lds R24,_Text+6
 154A 8333              cpi R24,51
 154C 31F4              brne L372
 154E           X143:
 154E 81E0              ldi R24,1
 1550 20900000          lds R2,_KeyID
 1554 8215              cp R24,R2
 1556 08F4              brsh L372
 1558           X144:
 1558                   .dbline 782
 1558 BEC0              xjmp L364
 155A           L372:
 155A                   .dbline 783
 155A           ;     else if((text_ptr==9)&&(KeyID>2));
 155A 80910000          lds R24,_text_ptr
 155E 8930              cpi R24,9
 1560 31F4              brne L375
 1562           X145:
 1562 82E0              ldi R24,2
 1564 20900000          lds R2,_KeyID
 1568 8215              cp R24,R2
 156A 08F4              brsh L375
 156C           X146:
 156C                   .dbline 783
 156C B4C0              xjmp L364
 156E           L375:
 156E                   .dbline 784
 156E           ;       else if((text_ptr==10)&&(Text[9]=='2')&&(KeyID>3)); 
 156E 80910000          lds R24,_text_ptr
 1572 8A30              cpi R24,10
 1574 51F4              brne L377
 1576           X147:
 1576 80910900          lds R24,_Text+9
 157A 8233              cpi R24,50
 157C 31F4              brne L377
 157E           X148:
 157E 83E0              ldi R24,3
 1580 20900000          lds R2,_KeyID
 1584 8215              cp R24,R2
 1586 08F4              brsh L377
 1588           X149:
 1588                   .dbline 784
 1588 A6C0              xjmp L364
 158A           L377:
 158A                   .dbline 785
 158A           ;       else if((text_ptr==12)&&(KeyID>5));
 158A 80910000          lds R24,_text_ptr
 158E 8C30              cpi R24,12
 1590 31F4              brne L380
 1592           X150:
 1592 85E0              ldi R24,5
 1594 20900000          lds R2,_KeyID
 1598 8215              cp R24,R2
 159A 08F4              brsh L380
 159C           X151:
 159C                   .dbline 785
 159C 9CC0              xjmp L364
 159E           L380:
 159E                   .dbline 786
 159E           ;       else if((text_ptr==15)&&(KeyID>5));
 159E 80910000          lds R24,_text_ptr
 15A2 8F30              cpi R24,15
 15A4 31F4              brne L382
 15A6           X152:
 15A6 85E0              ldi R24,5
 15A8 20900000          lds R2,_KeyID
 15AC 8215              cp R24,R2
 15AE 08F4              brsh L382
 15B0           X153:
 15B0                   .dbline 786
 15B0 92C0              xjmp L364
 15B2           L382:
 15B2                   .dbline 788
 15B2           ;       else
 15B2           ;       {
 15B2                   .dbline 789
 15B2           ;         if((Text[3]=='1')&&(Text[4]>'2')) Text[4]='0';
 15B2 80910300          lds R24,_Text+3
 15B6 8133              cpi R24,49
 15B8 41F4              brne L384
 15BA           X154:
 15BA 82E3              ldi R24,50
 15BC 20900400          lds R2,_Text+4
 15C0 8215              cp R24,R2
 15C2 18F4              brsh L384
 15C4           X155:
 15C4                   .dbline 789
 15C4 80E3              ldi R24,48
 15C6 80930400          sts _Text+4,R24
 15CA           L384:
 15CA                   .dbline 790
 15CA           ;         if((Text[6]=='3')&&(Text[7]>'1')) Text[7]='0';
 15CA 80910600          lds R24,_Text+6
 15CE 8333              cpi R24,51
 15D0 41F4              brne L389
 15D2           X156:
 15D2 81E3              ldi R24,49
 15D4 20900700          lds R2,_Text+7
 15D8 8215              cp R24,R2
 15DA 18F4              brsh L389
 15DC           X157:
 15DC                   .dbline 790
 15DC 80E3              ldi R24,48
 15DE 80930700          sts _Text+7,R24
 15E2           L389:
 15E2                   .dbline 791
 15E2           ;         if((Text[9]=='2')&&(Text[10]>'3')) Text[10]='0';
 15E2 80910900          lds R24,_Text+9
 15E6 8233              cpi R24,50
 15E8 41F4              brne L394
 15EA           X158:
 15EA 83E3              ldi R24,51
 15EC 20900A00          lds R2,_Text+10
 15F0 8215              cp R24,R2
 15F2 18F4              brsh L394
 15F4           X159:
 15F4                   .dbline 791
 15F4 80E3              ldi R24,48
 15F6 80930A00          sts _Text+10,R24
 15FA           L394:
 15FA                   .dbline 792
 15FA           ;         if(text_ptr<16) text_ptr++;
 15FA 80910000          lds R24,_text_ptr
 15FE 8031              cpi R24,16
 1600 20F4              brsh L399
 1602           X160:
 1602                   .dbline 792
 1602 8F5F              subi R24,255    ; addi 1
 1604 80930000          sts _text_ptr,R24
 1608 03C0              xjmp L400
 160A           L399:
 160A                   .dbline 793
 160A           ;         else text_ptr=0;
 160A 2224              clr R2
 160C 20920000          sts _text_ptr,R2
 1610           L400:
 1610                   .dbline 794
 1610           ;         if((text_ptr==2)||(text_ptr==5)||(text_ptr==8)||(text_ptr==11)||(text_ptr==14)) text_ptr++;
 1610 20900000          lds R2,_text_ptr
 1614 822D              mov R24,R2
 1616 8230              cpi R24,2
 1618 41F0              breq L406
 161A           X161:
 161A 8530              cpi R24,5
 161C 31F0              breq L406
 161E           X162:
 161E 8830              cpi R24,8
 1620 21F0              breq L406
 1622           X163:
 1622 8B30              cpi R24,11
 1624 11F0              breq L406
 1626           X164:
 1626 8E30              cpi R24,14
 1628 29F4              brne L401
 162A           X165:
 162A           L406:
 162A                   .dbline 794
 162A 80910000          lds R24,_text_ptr
 162E 8F5F              subi R24,255    ; addi 1
 1630 80930000          sts _text_ptr,R24
 1634           L401:
 1634                   .dbline 795
 1634           ;         Text[18]=Text[text_ptr];
 1634 80E0              ldi R24,<_Text
 1636 90E0              ldi R25,>_Text
 1638 E0910000          lds R30,_text_ptr
 163C FF27              clr R31
 163E E80F              add R30,R24
 1640 F91F              adc R31,R25
 1642 2080              ldd R2,z+0
 1644 20921200          sts _Text+18,R2
 1648                   .dbline 796
 1648           ;         print_texts(335,156,0,0xD1,2,0x04bb,0xffff,Text);
 1648 9B87              std y+11,R25
 164A 8A87              std y+10,R24
 164C 8FEF              ldi R24,65535
 164E 9FEF              ldi R25,255
 1650 9987              std y+9,R25
 1652 8887              std y+8,R24
 1654 8BEB              ldi R24,1211
 1656 94E0              ldi R25,4
 1658 9F83              std y+7,R25
 165A 8E83              std y+6,R24
 165C 82E0              ldi R24,2
 165E 8C83              std y+4,R24
 1660 81ED              ldi R24,209
 1662 8A83              std y+2,R24
 1664 2224              clr R2
 1666 2882              std y+0,R2
 1668 2CE9              ldi R18,156
 166A 30E0              ldi R19,0
 166C 0FE4              ldi R16,335
 166E 11E0              ldi R17,1
 1670 0E940000          xcall _print_texts
 1674                   .dbline 797
 1674           ;       print_texts(335+text_ptr*12,156,0,0xD1,2,0xffff,0x04bb,&Text[18]);
 1674 80E0              ldi R24,<_Text+18
 1676 90E0              ldi R25,>_Text+18
 1678 9B87              std y+11,R25
 167A 8A87              std y+10,R24
 167C 8BEB              ldi R24,1211
 167E 94E0              ldi R25,4
 1680 9987              std y+9,R25
 1682 8887              std y+8,R24
 1684 8FEF              ldi R24,65535
 1686 9FEF              ldi R25,255
 1688 9F83              std y+7,R25
 168A 8E83              std y+6,R24
 168C 82E0              ldi R24,2
 168E 8C83              std y+4,R24
 1690 81ED              ldi R24,209
 1692 8A83              std y+2,R24
 1694 2224              clr R2
 1696 2882              std y+0,R2
 1698 2CE9              ldi R18,156
 169A 30E0              ldi R19,0
 169C 10910000          lds R17,_text_ptr
 16A0 0CE0              ldi R16,12
 16A2 0103              mulsu R16,R17
 16A4 8001              movw R16,R0
 16A6 015B              subi R16,177  ; offset = 335
 16A8 1E4F              sbci R17,254
 16AA 0E940000          xcall _print_texts
 16AE                   .dbline 798
 16AE           ;       }
 16AE                   .dbline 799
 16AE           ;   }
 16AE 13C0              xjmp L364
 16B0           L363:
 16B0                   .dbline 800
 16B0           ;   else if(KeyID==11)
 16B0 80910000          lds R24,_KeyID
 16B4 8B30              cpi R24,11
 16B6 31F4              brne L409
 16B8           X166:
 16B8                   .dbline 801
 16B8           ;   {
 16B8                   .dbline 802
 16B8           ;     DisWelcome();
 16B8 0E945302          xcall _DisWelcome
 16BC                   .dbline 803
 16BC           ;       DisPage=0;
 16BC 2224              clr R2
 16BE 20920000          sts _DisPage,R2
 16C2                   .dbline 804
 16C2           ;   }
 16C2 09C0              xjmp L410
 16C4           L409:
 16C4                   .dbline 805
 16C4           ;   else if(KeyID==12)
 16C4 80910000          lds R24,_KeyID
 16C8 8C30              cpi R24,12
 16CA 29F4              brne L411
 16CC           X167:
 16CC                   .dbline 806
 16CC           ;   {
 16CC                   .dbline 807
 16CC           ;     DisWelcome();
 16CC 0E945302          xcall _DisWelcome
 16D0                   .dbline 808
 16D0           ;       DisPage=WELCOMEPAGE;
 16D0 2224              clr R2
 16D2 20920000          sts _DisPage,R2
 16D6                   .dbline 809
 16D6           ;   }
 16D6           L411:
 16D6           L410:
 16D6           L364:
 16D6                   .dbline -2
 16D6           L358:
 16D6                   .dbline 0 ; func end
 16D6 2C96              adiw R28,12
 16D8 0895              ret
 16DA                   .dbend
 16DA                   .dbfunc e SoundKeyDown _SoundKeyDown fV
                        .even
 16DA           _SoundKeyDown::
 16DA 2C97              sbiw R28,12
 16DC                   .dbline -1
 16DC                   .dbline 812
 16DC           ; }
 16DC           ; void SoundKeyDown(void)
 16DC           ; {
 16DC                   .dbline 813
 16DC           ;   if(DisPage!=SOUNDPAGE) return;
 16DC 80910000          lds R24,_DisPage
 16E0 8430              cpi R24,4
 16E2 09F0              breq L414
 16E4           X169:
 16E4                   .dbline 813
 16E4 88C0              xjmp L413
 16E6           L414:
 16E6                   .dbline 814
 16E6           ;   KeyID=GetKeyID(Sound_Key,3); 
 16E6 23E0              ldi R18,3
 16E8 00E0              ldi R16,<_Sound_Key
 16EA 10E0              ldi R17,>_Sound_Key
 16EC 28D8              xcall _GetKeyID
 16EE 00930000          sts _KeyID,R16
 16F2                   .dbline 815
 16F2           ;   if(KeyID==0)
 16F2 0023              tst R16
 16F4 09F4              brne L416
 16F6           X170:
 16F6                   .dbline 816
 16F6           ;   {
 16F6                   .dbline 818
 16F6           ;     
 16F6           ;   }
 16F6 7FC0              xjmp L417
 16F8           L416:
 16F8                   .dbline 819
 16F8           ;   else if(KeyID==1)
 16F8 80910000          lds R24,_KeyID
 16FC 8130              cpi R24,1
 16FE F9F4              brne L418
 1700           X171:
 1700                   .dbline 820
 1700           ;   {
 1700                   .dbline 821
 1700           ;     SoundSet=0;
 1700 2224              clr R2
 1702 20920000          sts _SoundSet,R2
 1706                   .dbline 823
 1706           ;     //EEPROMWriteBytes(SoundSetAddr,&SoundSet,1);
 1706           ;     cut_pic(0,14,0,331,179,531,300,200);
 1706 88EC              ldi R24,200
 1708 90E0              ldi R25,0
 170A 9B87              std y+11,R25
 170C 8A87              std y+10,R24
 170E 8CE2              ldi R24,300
 1710 91E0              ldi R25,1
 1712 9987              std y+9,R25
 1714 8887              std y+8,R24
 1716 83E1              ldi R24,531
 1718 92E0              ldi R25,2
 171A 9F83              std y+7,R25
 171C 8E83              std y+6,R24
 171E 83EB              ldi R24,179
 1720 90E0              ldi R25,0
 1722 9D83              std y+5,R25
 1724 8C83              std y+4,R24
 1726 8BE4              ldi R24,331
 1728 91E0              ldi R25,1
 172A 9B83              std y+3,R25
 172C 8A83              std y+2,R24
 172E 3324              clr R3
 1730 3982              std y+1,R3
 1732 2882              std y+0,R2
 1734 2EE0              ldi R18,14
 1736 0027              clr R16
 1738 0E940000          xcall _cut_pic
 173C                   .dbline 825
 173C           ;       //cut_pic(0,13,669,402+(SoundSet>0)*50,699,450+(SoundSet>0)*50,669,552);
 173C           ;   }
 173C 5CC0              xjmp L419
 173E           L418:
 173E                   .dbline 826
 173E           ;   else if(KeyID==2)
 173E 80910000          lds R24,_KeyID
 1742 8230              cpi R24,2
 1744 09F0              breq X173
 1746 57C0              xjmp L420
 1748           X173:
 1748           X172:
 1748                   .dbline 827
 1748           ;   {
 1748                   .dbline 828
 1748           ;     cut_pic(0,14,181,331,360,531,300,200);
 1748 88EC              ldi R24,200
 174A 90E0              ldi R25,0
 174C 9B87              std y+11,R25
 174E 8A87              std y+10,R24
 1750 8CE2              ldi R24,300
 1752 91E0              ldi R25,1
 1754 9987              std y+9,R25
 1756 8887              std y+8,R24
 1758 83E1              ldi R24,531
 175A 92E0              ldi R25,2
 175C 9F83              std y+7,R25
 175E 8E83              std y+6,R24
 1760 88E6              ldi R24,360
 1762 91E0              ldi R25,1
 1764 9D83              std y+5,R25
 1766 8C83              std y+4,R24
 1768 8BE4              ldi R24,75
 176A 9B83              std y+3,R25
 176C 8A83              std y+2,R24
 176E 85EB              ldi R24,181
 1770 90E0              ldi R25,0
 1772 9983              std y+1,R25
 1774 8883              std y+0,R24
 1776 2EE0              ldi R18,14
 1778 0027              clr R16
 177A 0E940000          xcall _cut_pic
 177E                   .dbline 829
 177E           ;       cut_pic(0,14,1,371,170,371+(Touch_Y-240)/15*15,301,240);
 177E 80EF              ldi R24,240
 1780 90E0              ldi R25,0
 1782 9B87              std y+11,R25
 1784 8A87              std y+10,R24
 1786 8DE2              ldi R24,301
 1788 91E0              ldi R25,1
 178A 9987              std y+9,R25
 178C 8887              std y+8,R24
 178E 2FE0              ldi R18,15
 1790 30E0              ldi R19,0
 1792 00910000          lds R16,_Touch_Y
 1796 10910100          lds R17,_Touch_Y+1
 179A 005F              subi R16,240
 179C 1040              sbci R17,0
 179E 0E940000          xcall div16u
 17A2 9801              movw R18,R16
 17A4 0FE0              ldi R16,15
 17A6 10E0              ldi R17,0
 17A8 0E940000          xcall empy16s
 17AC C801              movw R24,R16
 17AE 8D58              subi R24,141  ; offset = 371
 17B0 9E4F              sbci R25,254
 17B2 9F83              std y+7,R25
 17B4 8E83              std y+6,R24
 17B6 8AEA              ldi R24,170
 17B8 90E0              ldi R25,0
 17BA 9D83              std y+5,R25
 17BC 8C83              std y+4,R24
 17BE 83E7              ldi R24,371
 17C0 91E0              ldi R25,1
 17C2 9B83              std y+3,R25
 17C4 8A83              std y+2,R24
 17C6 81E0              ldi R24,1
 17C8 90E0              ldi R25,0
 17CA 9983              std y+1,R25
 17CC 8883              std y+0,R24
 17CE 2EE0              ldi R18,14
 17D0 0027              clr R16
 17D2 0E940000          xcall _cut_pic
 17D6                   .dbline 831
 17D6           ;       //cut_pic(0,13,669,402+(SoundSet>0)*50,699,450+(SoundSet>0)*50,669,552);
 17D6           ;       SoundSet=10-(Touch_Y-240)/15;
 17D6 2FE0              ldi R18,15
 17D8 30E0              ldi R19,0
 17DA 00910000          lds R16,_Touch_Y
 17DE 10910100          lds R17,_Touch_Y+1
 17E2 005F              subi R16,240
 17E4 1040              sbci R17,0
 17E6 0E940000          xcall div16u
 17EA 8AE0              ldi R24,10
 17EC 90E0              ldi R25,0
 17EE 801B              sub R24,R16
 17F0 910B              sbc R25,R17
 17F2 80930000          sts _SoundSet,R24
 17F6                   .dbline 833
 17F6           ;     //EEPROMWriteBytes(SoundSetAddr,&SoundSet,1);
 17F6           ;   }
 17F6           L420:
 17F6           L419:
 17F6           L417:
 17F6                   .dbline -2
 17F6           L413:
 17F6                   .dbline 0 ; func end
 17F6 2C96              adiw R28,12
 17F8 0895              ret
 17FA                   .dbend
 17FA                   .dbfunc e SoundKeyUP _SoundKeyUP fV
                        .even
 17FA           _SoundKeyUP::
 17FA                   .dbline -1
 17FA                   .dbline 836
 17FA           ; }
 17FA           ; void SoundKeyUP(void)
 17FA           ; {
 17FA                   .dbline 837
 17FA           ;  if(DisPage!=SOUNDPAGE) return; 
 17FA 80910000          lds R24,_DisPage
 17FE 8430              cpi R24,4
 1800 09F0              breq L423
 1802           X174:
 1802                   .dbline 837
 1802 09C0              xjmp L422
 1804           L423:
 1804                   .dbline 838
 1804           ;  if(KeyID==0)
 1804 20900000          lds R2,_KeyID
 1808 2220              tst R2
 180A 29F4              brne L425
 180C           X175:
 180C                   .dbline 839
 180C           ;   {
 180C                   .dbline 840
 180C           ;     DisWelcome();
 180C 0E945302          xcall _DisWelcome
 1810                   .dbline 841
 1810           ;       DisPage=WELCOMEPAGE;
 1810 2224              clr R2
 1812 20920000          sts _DisPage,R2
 1816                   .dbline 842
 1816           ;   }
 1816           L425:
 1816                   .dbline -2
 1816           L422:
 1816                   .dbline 0 ; func end
 1816 0895              ret
 1818                   .dbend
 1818                   .dbfunc e LanguageKeyDown _LanguageKeyDown fV
                        .even
 1818           _LanguageKeyDown::
 1818 4A93              st -y,R20
 181A 5A93              st -y,R21
 181C 2C97              sbiw R28,12
 181E                   .dbline -1
 181E                   .dbline 845
 181E           ; }
 181E           ; void LanguageKeyDown(void)
 181E           ; {
 181E                   .dbline 846
 181E           ;  if(DisPage!=LANGUAGEPAGE) return;
 181E 80910000          lds R24,_DisPage
 1822 8530              cpi R24,5
 1824 09F0              breq L428
 1826           X176:
 1826                   .dbline 846
 1826 71C0              xjmp L427
 1828           L428:
 1828                   .dbline 847
 1828           ;  KeyID=GetKeyID(Language_Key,17); 
 1828 21E1              ldi R18,17
 182A 00E0              ldi R16,<_Language_Key
 182C 10E0              ldi R17,>_Language_Key
 182E 0E949F03          xcall _GetKeyID
 1832 00930000          sts _KeyID,R16
 1836                   .dbline 848
 1836           ;  if(KeyID<16)
 1836 802F              mov R24,R16
 1838 0031              cpi R16,16
 183A 08F0              brlo X179
 183C 62C0              xjmp L430
 183E           X179:
 183E           X177:
 183E                   .dbline 849
 183E           ;  {
 183E                   .dbline 850
 183E           ;    Language=KeyID;
 183E 282E              mov R2,R24
 1840 20920000          sts _Language,R2
 1844                   .dbline 851
 1844           ;    cut_pic(0,15,0,0,374,400,300,100);
 1844 84E6              ldi R24,100
 1846 90E0              ldi R25,0
 1848 9B87              std y+11,R25
 184A 8A87              std y+10,R24
 184C 8CE2              ldi R24,300
 184E 91E0              ldi R25,1
 1850 9987              std y+9,R25
 1852 8887              std y+8,R24
 1854 80E9              ldi R24,144
 1856 9F83              std y+7,R25
 1858 8E83              std y+6,R24
 185A 86E7              ldi R24,118
 185C 9D83              std y+5,R25
 185E 8C83              std y+4,R24
 1860 2224              clr R2
 1862 3324              clr R3
 1864 3B82              std y+3,R3
 1866 2A82              std y+2,R2
 1868 3982              std y+1,R3
 186A 2882              std y+0,R2
 186C 2FE0              ldi R18,15
 186E 0027              clr R16
 1870 0E940000          xcall _cut_pic
 1874                   .dbline 852
 1874           ;    cut_pic(0,15,Language_Key[KeyID].XS+75,Language_Key[KeyID].YS-100,Language_Key[KeyID].XE+75,Language_Key[KeyID].YE-100,Language_Key[KeyID].XS,Language_Key[KeyID].YS);
 1874 20900000          lds R2,_KeyID
 1878 3324              clr R3
 187A 220C              lsl R2
 187C 331C              rol R3
 187E 220C              lsl R2
 1880 331C              rol R3
 1882 220C              lsl R2
 1884 331C              rol R3
 1886 2101              movw R4,R2
 1888 80E0              ldi R24,<_Language_Key+2
 188A 90E0              ldi R25,>_Language_Key+2
 188C F101              movw R30,R2
 188E E80F              add R30,R24
 1890 F91F              adc R31,R25
 1892 2790              elpm R2,Z+
 1894 3690              elpm R3,Z
 1896 3B86              std y+11,R3
 1898 2A86              std y+10,R2
 189A 80E0              ldi R24,<_Language_Key
 189C 90E0              ldi R25,>_Language_Key
 189E F201              movw R30,R4
 18A0 E80F              add R30,R24
 18A2 F91F              adc R31,R25
 18A4 4791              elpm R20,Z+
 18A6 5691              elpm R21,Z
 18A8 5987              std y+9,R21
 18AA 4887              std y+8,R20
 18AC 80E0              ldi R24,<_Language_Key+6
 18AE 90E0              ldi R25,>_Language_Key+6
 18B0 F201              movw R30,R4
 18B2 E80F              add R30,R24
 18B4 F91F              adc R31,R25
 18B6 8791              elpm R24,Z+
 18B8 9691              elpm R25,Z
 18BA 8456              subi R24,100
 18BC 9040              sbci R25,0
 18BE 9F83              std y+7,R25
 18C0 8E83              std y+6,R24
 18C2 80E0              ldi R24,<_Language_Key+4
 18C4 90E0              ldi R25,>_Language_Key+4
 18C6 F201              movw R30,R4
 18C8 E80F              add R30,R24
 18CA F91F              adc R31,R25
 18CC 8791              elpm R24,Z+
 18CE 9691              elpm R25,Z
 18D0 855B              subi R24,181  ; offset = 75
 18D2 9F4F              sbci R25,255
 18D4 9D83              std y+5,R25
 18D6 8C83              std y+4,R24
 18D8 80E0              ldi R24,<_Language_Key+2
 18DA 90E0              ldi R25,>_Language_Key+2
 18DC F201              movw R30,R4
 18DE E80F              add R30,R24
 18E0 F91F              adc R31,R25
 18E2 8791              elpm R24,Z+
 18E4 9691              elpm R25,Z
 18E6 8456              subi R24,100
 18E8 9040              sbci R25,0
 18EA 9B83              std y+3,R25
 18EC 8A83              std y+2,R24
 18EE CA01              movw R24,R20
 18F0 855B              subi R24,181  ; offset = 75
 18F2 9F4F              sbci R25,255
 18F4 9983              std y+1,R25
 18F6 8883              std y+0,R24
 18F8 2FE0              ldi R18,15
 18FA 0027              clr R16
 18FC 0E940000          xcall _cut_pic
 1900                   .dbline 853
 1900           ;  }
 1900 04C0              xjmp L431
 1902           L430:
 1902                   .dbline 854
 1902           ;  else if(KeyID==16)
 1902 80910000          lds R24,_KeyID
 1906 8031              cpi R24,16
 1908 01F4              brne L436
 190A           X178:
 190A                   .dbline 855
 190A           ;  {
 190A                   .dbline 857
 190A           ; 
 190A           ;  }
 190A           L436:
 190A           L431:
 190A                   .dbline -2
 190A           L427:
 190A                   .dbline 0 ; func end
 190A 2C96              adiw R28,12
 190C 5991              ld R21,y+
 190E 4991              ld R20,y+
 1910 0895              ret
 1912                   .dbend
 1912                   .dbfunc e LanguageKeyUp _LanguageKeyUp fV
                        .even
 1912           _LanguageKeyUp::
 1912                   .dbline -1
 1912                   .dbline 860
 1912           ; }
 1912           ; void LanguageKeyUp(void)
 1912           ; {
 1912                   .dbline 861
 1912           ;  if(DisPage!=LANGUAGEPAGE) return;
 1912 80910000          lds R24,_DisPage
 1916 8530              cpi R24,5
 1918 09F0              breq L439
 191A           X180:
 191A                   .dbline 861
 191A 07C0              xjmp L438
 191C           L439:
 191C                   .dbline 862
 191C           ;  if(KeyID==16)
 191C 80910000          lds R24,_KeyID
 1920 8031              cpi R24,16
 1922 19F4              brne L441
 1924           X181:
 1924                   .dbline 863
 1924           ;  {
 1924                   .dbline 866
 1924           ;    //EEPROMWriteBytes(LanguageAddr,&Language,1);
 1924           ;   // DisWelcome();
 1924           ;    DisPage=WELCOMEPAGE;
 1924 2224              clr R2
 1926 20920000          sts _DisPage,R2
 192A                   .dbline 867
 192A           ;  }
 192A           L441:
 192A                   .dbline -2
 192A           L438:
 192A                   .dbline 0 ; func end
 192A 0895              ret
 192C                   .dbend
 192C                   .dbfunc e BackKeyDown _BackKeyDown fV
                        .even
 192C           _BackKeyDown::
 192C 0E940000          xcall push_xgsetF00C
 1930 2C97              sbiw R28,12
 1932                   .dbline -1
 1932                   .dbline 870
 1932           ; }
 1932           ; void BackKeyDown(void)
 1932           ; {
 1932                   .dbline 871
 1932           ;  if(DisPage!=BACKPAGE) return;
 1932 80910000          lds R24,_DisPage
 1936 8630              cpi R24,6
 1938 09F0              breq L444
 193A           X182:
 193A                   .dbline 871
 193A 94C0              xjmp L443
 193C           L444:
 193C                   .dbline 872
 193C           ;  KeyID=GetKeyID(Back_Key,4); 
 193C 24E0              ldi R18,4
 193E 00E0              ldi R16,<_Back_Key
 1940 10E0              ldi R17,>_Back_Key
 1942 0E949F03          xcall _GetKeyID
 1946 00930000          sts _KeyID,R16
 194A                   .dbline 873
 194A           ;  if((KeyID==0)&&(BackSet>0)) 
 194A 0023              tst R16
 194C 09F0              breq X187
 194E 44C0              xjmp L446
 1950           X187:
 1950           X183:
 1950 80E0              ldi R24,0
 1952 20900000          lds R2,_BackSet
 1956 8215              cp R24,R2
 1958 08F0              brlo X188
 195A 3EC0              xjmp L446
 195C           X188:
 195C           X184:
 195C                   .dbline 874
 195C           ;  {
 195C                   .dbline 875
 195C           ;    BackSet--;
 195C 822D              mov R24,R2
 195E 8150              subi R24,1
 1960 80930000          sts _BackSet,R24
 1964                   .dbline 876
 1964           ;    cut_pic(0,16+BackSet/6,(BackSet%3)*241,(BackSet%6/3)*270,(BackSet%3)*241+239,(BackSet%6/3)*270+269,300,200);
 1964 88EC              ldi R24,200
 1966 90E0              ldi R25,0
 1968 9B87              std y+11,R25
 196A 8A87              std y+10,R24
 196C 8CE2              ldi R24,300
 196E 91E0              ldi R25,1
 1970 9987              std y+9,R25
 1972 8887              std y+8,R24
 1974 20900000          lds R2,_BackSet
 1978 26E0              ldi R18,6
 197A 30E0              ldi R19,0
 197C 022D              mov R16,R2
 197E 1127              clr R17
 1980 0E940000          xcall mod16s
 1984 23E0              ldi R18,3
 1986 30E0              ldi R19,0
 1988 0E940000          xcall div16s
 198C 8EE0              ldi R24,270
 198E 91E0              ldi R25,1
 1990 9801              movw R18,R16
 1992 8C01              movw R16,R24
 1994 0E940000          xcall empy16s
 1998 B801              movw R22,R16
 199A CB01              movw R24,R22
 199C 835F              subi R24,243  ; offset = 269
 199E 9E4F              sbci R25,254
 19A0 9F83              std y+7,R25
 19A2 8E83              std y+6,R24
 19A4 13E0              ldi R17,3
 19A6 022D              mov R16,R2
 19A8 0E940000          xcall mod8u
 19AC 81EF              ldi R24,241
 19AE 809F              mul R24,R16
 19B0 A001              movw R20,R0
 19B2 CA01              movw R24,R20
 19B4 8151              subi R24,17  ; offset = 239
 19B6 9F4F              sbci R25,255
 19B8 9D83              std y+5,R25
 19BA 8C83              std y+4,R24
 19BC 7B83              std y+3,R23
 19BE 6A83              std y+2,R22
 19C0 5983              std y+1,R21
 19C2 4883              std y+0,R20
 19C4 16E0              ldi R17,6
 19C6 022D              mov R16,R2
 19C8 0E940000          xcall div8u
 19CC 202F              mov R18,R16
 19CE 205F              subi R18,240    ; addi 16
 19D0 0027              clr R16
 19D2 0E940000          xcall _cut_pic
 19D6                   .dbline 877
 19D6           ;  } 
 19D6 46C0              xjmp L447
 19D8           L446:
 19D8                   .dbline 878
 19D8           ;  else if((KeyID==1)&&(BackSet<9)) 
 19D8 80910000          lds R24,_KeyID
 19DC 8130              cpi R24,1
 19DE 09F0              breq X189
 19E0 41C0              xjmp L448
 19E2           X189:
 19E2           X185:
 19E2 80910000          lds R24,_BackSet
 19E6 8930              cpi R24,9
 19E8 08F0              brlo X190
 19EA 3CC0              xjmp L448
 19EC           X190:
 19EC           X186:
 19EC                   .dbline 879
 19EC           ;  {
 19EC                   .dbline 880
 19EC           ;    BackSet++;
 19EC 8F5F              subi R24,255    ; addi 1
 19EE 80930000          sts _BackSet,R24
 19F2                   .dbline 881
 19F2           ;    cut_pic(0,16+BackSet/6,(BackSet%3)*241,(BackSet%6/3)*270,(BackSet%3)*241+239,(BackSet%6/3)*270+269,300,200);
 19F2 88EC              ldi R24,200
 19F4 90E0              ldi R25,0
 19F6 9B87              std y+11,R25
 19F8 8A87              std y+10,R24
 19FA 8CE2              ldi R24,300
 19FC 91E0              ldi R25,1
 19FE 9987              std y+9,R25
 1A00 8887              std y+8,R24
 1A02 A0900000          lds R10,_BackSet
 1A06 26E0              ldi R18,6
 1A08 30E0              ldi R19,0
 1A0A 0A2D              mov R16,R10
 1A0C 1127              clr R17
 1A0E 0E940000          xcall mod16s
 1A12 23E0              ldi R18,3
 1A14 30E0              ldi R19,0
 1A16 0E940000          xcall div16s
 1A1A 8EE0              ldi R24,270
 1A1C 91E0              ldi R25,1
 1A1E 9801              movw R18,R16
 1A20 8C01              movw R16,R24
 1A22 0E940000          xcall empy16s
 1A26 B801              movw R22,R16
 1A28 CB01              movw R24,R22
 1A2A 835F              subi R24,243  ; offset = 269
 1A2C 9E4F              sbci R25,254
 1A2E 9F83              std y+7,R25
 1A30 8E83              std y+6,R24
 1A32 13E0              ldi R17,3
 1A34 0A2D              mov R16,R10
 1A36 0E940000          xcall mod8u
 1A3A 81EF              ldi R24,241
 1A3C 809F              mul R24,R16
 1A3E A001              movw R20,R0
 1A40 CA01              movw R24,R20
 1A42 8151              subi R24,17  ; offset = 239
 1A44 9F4F              sbci R25,255
 1A46 9D83              std y+5,R25
 1A48 8C83              std y+4,R24
 1A4A 7B83              std y+3,R23
 1A4C 6A83              std y+2,R22
 1A4E 5983              std y+1,R21
 1A50 4883              std y+0,R20
 1A52 16E0              ldi R17,6
 1A54 0A2D              mov R16,R10
 1A56 0E940000          xcall div8u
 1A5A 202F              mov R18,R16
 1A5C 205F              subi R18,240    ; addi 16
 1A5E 0027              clr R16
 1A60 0E940000          xcall _cut_pic
 1A64                   .dbline 882
 1A64           ;  } 
 1A64           L448:
 1A64           L447:
 1A64                   .dbline -2
 1A64           L443:
 1A64                   .dbline 0 ; func end
 1A64 2C96              adiw R28,12
 1A66 0C940000          xjmp pop_xgsetF00C
 1A6A                   .dbend
 1A6A                   .dbfunc e BackKeyUp _BackKeyUp fV
                        .even
 1A6A           _BackKeyUp::
 1A6A                   .dbline -1
 1A6A                   .dbline 885
 1A6A           ; }
 1A6A           ; void BackKeyUp(void)
 1A6A           ; {
 1A6A                   .dbline 886
 1A6A           ;  if(DisPage!=BACKPAGE) return;
 1A6A 80910000          lds R24,_DisPage
 1A6E 8630              cpi R24,6
 1A70 09F0              breq L451
 1A72           X191:
 1A72                   .dbline 886
 1A72 13C0              xjmp L450
 1A74           L451:
 1A74                   .dbline 887
 1A74           ;  if(KeyID==2)
 1A74 80910000          lds R24,_KeyID
 1A78 8230              cpi R24,2
 1A7A 31F4              brne L453
 1A7C           X192:
 1A7C                   .dbline 888
 1A7C           ;  {
 1A7C                   .dbline 890
 1A7C           ;    //EEPROMWriteBytes(BackSetAddr,&BackSet,1);
 1A7C           ;    DisWelcome();
 1A7C 0E945302          xcall _DisWelcome
 1A80                   .dbline 891
 1A80           ;    DisPage=WELCOMEPAGE;
 1A80 2224              clr R2
 1A82 20920000          sts _DisPage,R2
 1A86                   .dbline 892
 1A86           ;  } 
 1A86 09C0              xjmp L454
 1A88           L453:
 1A88                   .dbline 893
 1A88           ;  else if(KeyID==3)
 1A88 80910000          lds R24,_KeyID
 1A8C 8330              cpi R24,3
 1A8E 29F4              brne L455
 1A90           X193:
 1A90                   .dbline 894
 1A90           ;  {
 1A90                   .dbline 896
 1A90           ;    //EEPROMReadBytes(BackSetAddr,&BackSet,1);
 1A90           ;    DisWelcome();
 1A90 0E945302          xcall _DisWelcome
 1A94                   .dbline 897
 1A94           ;    DisPage=WELCOMEPAGE;
 1A94 2224              clr R2
 1A96 20920000          sts _DisPage,R2
 1A9A                   .dbline 898
 1A9A           ;  }  
 1A9A           L455:
 1A9A           L454:
 1A9A                   .dbline -2
 1A9A           L450:
 1A9A                   .dbline 0 ; func end
 1A9A 0895              ret
 1A9C                   .dbend
 1A9C                   .dbfunc e USBKeyDown _USBKeyDown fV
                        .even
 1A9C           _USBKeyDown::
 1A9C 2C97              sbiw R28,12
 1A9E                   .dbline -1
 1A9E                   .dbline 901
 1A9E           ; }
 1A9E           ; void USBKeyDown(void)
 1A9E           ; {
 1A9E                   .dbline 902
 1A9E           ;  if(DisPage!=USBPAGE) return;
 1A9E 80910000          lds R24,_DisPage
 1AA2 8730              cpi R24,7
 1AA4 09F0              breq L458
 1AA6           X194:
 1AA6                   .dbline 902
 1AA6 37C0              xjmp L457
 1AA8           L458:
 1AA8                   .dbline 903
 1AA8           ;  KeyID=GetKeyID(USB_Key,3); 
 1AA8 23E0              ldi R18,3
 1AAA 00E0              ldi R16,<_USB_Key
 1AAC 10E0              ldi R17,>_USB_Key
 1AAE 0E949F03          xcall _GetKeyID
 1AB2 00930000          sts _KeyID,R16
 1AB6                   .dbline 904
 1AB6           ;  if(KeyID==0)
 1AB6 0023              tst R16
 1AB8 09F0              breq X196
 1ABA 2DC0              xjmp L460
 1ABC           X196:
 1ABC           X195:
 1ABC                   .dbline 905
 1ABC           ;  {
 1ABC                   .dbline 906
 1ABC           ;    cut_pic(0,26,USB_Key[0].XS-300,USB_Key[0].YS+223,USB_Key[0].XE-300,USB_Key[0].YE+223,USB_Key[0].XS,USB_Key[0].YS);
 1ABC E0E0              ldi R30,<_USB_Key+2
 1ABE F0E0              ldi R31,>_USB_Key+2
 1AC0 2790              elpm R2,Z+
 1AC2 3690              elpm R3,Z
 1AC4 3B86              std y+11,R3
 1AC6 2A86              std y+10,R2
 1AC8 E0E0              ldi R30,<_USB_Key
 1ACA F0E0              ldi R31,>_USB_Key
 1ACC 2790              elpm R2,Z+
 1ACE 3690              elpm R3,Z
 1AD0 3986              std y+9,R3
 1AD2 2886              std y+8,R2
 1AD4 E0E0              ldi R30,<_USB_Key+6
 1AD6 F0E0              ldi R31,>_USB_Key+6
 1AD8 8791              elpm R24,Z+
 1ADA 9691              elpm R25,Z
 1ADC 8152              subi R24,33  ; offset = 223
 1ADE 9F4F              sbci R25,255
 1AE0 9F83              std y+7,R25
 1AE2 8E83              std y+6,R24
 1AE4 E0E0              ldi R30,<_USB_Key+4
 1AE6 F0E0              ldi R31,>_USB_Key+4
 1AE8 8791              elpm R24,Z+
 1AEA 9691              elpm R25,Z
 1AEC 8C52              subi R24,44
 1AEE 9140              sbci R25,1
 1AF0 9D83              std y+5,R25
 1AF2 8C83              std y+4,R24
 1AF4 E0E0              ldi R30,<_USB_Key+2
 1AF6 F0E0              ldi R31,>_USB_Key+2
 1AF8 8791              elpm R24,Z+
 1AFA 9691              elpm R25,Z
 1AFC 8152              subi R24,33  ; offset = 223
 1AFE 9F4F              sbci R25,255
 1B00 9B83              std y+3,R25
 1B02 8A83              std y+2,R24
 1B04 C101              movw R24,R2
 1B06 8C52              subi R24,44
 1B08 9140              sbci R25,1
 1B0A 9983              std y+1,R25
 1B0C 8883              std y+0,R24
 1B0E 2AE1              ldi R18,26
 1B10 0027              clr R16
 1B12 0E940000          xcall _cut_pic
 1B16                   .dbline 907
 1B16           ;  }
 1B16           L460:
 1B16                   .dbline -2
 1B16           L457:
 1B16                   .dbline 0 ; func end
 1B16 2C96              adiw R28,12
 1B18 0895              ret
 1B1A                   .dbend
 1B1A                   .dbfunc e USBKeyUp _USBKeyUp fV
                        .even
 1B1A           _USBKeyUp::
 1B1A 2C97              sbiw R28,12
 1B1C                   .dbline -1
 1B1C                   .dbline 910
 1B1C           ; }
 1B1C           ; void USBKeyUp(void)
 1B1C           ; {
 1B1C                   .dbline 911
 1B1C           ;  if(DisPage!=USBPAGE) return;
 1B1C 80910000          lds R24,_DisPage
 1B20 8730              cpi R24,7
 1B22 09F0              breq L467
 1B24           X197:
 1B24                   .dbline 911
 1B24 47C0              xjmp L466
 1B26           L467:
 1B26                   .dbline 912
 1B26           ;  if(KeyID==0)
 1B26 20900000          lds R2,_KeyID
 1B2A 2220              tst R2
 1B2C 09F0              breq X200
 1B2E 39C0              xjmp L469
 1B30           X200:
 1B30           X198:
 1B30                   .dbline 913
 1B30           ;  {
 1B30                   .dbline 914
 1B30           ;    cut_pic(0,26,USB_Key[0].XS-300,USB_Key[0].YS+82,USB_Key[0].XE-300,USB_Key[0].YE+82,USB_Key[0].XS,USB_Key[0].YS);
 1B30 E0E0              ldi R30,<_USB_Key+2
 1B32 F0E0              ldi R31,>_USB_Key+2
 1B34 2790              elpm R2,Z+
 1B36 3690              elpm R3,Z
 1B38 3B86              std y+11,R3
 1B3A 2A86              std y+10,R2
 1B3C E0E0              ldi R30,<_USB_Key
 1B3E F0E0              ldi R31,>_USB_Key
 1B40 2790              elpm R2,Z+
 1B42 3690              elpm R3,Z
 1B44 3986              std y+9,R3
 1B46 2886              std y+8,R2
 1B48 E0E0              ldi R30,<_USB_Key+6
 1B4A F0E0              ldi R31,>_USB_Key+6
 1B4C 8791              elpm R24,Z+
 1B4E 9691              elpm R25,Z
 1B50 8E5A              subi R24,174  ; offset = 82
 1B52 9F4F              sbci R25,255
 1B54 9F83              std y+7,R25
 1B56 8E83              std y+6,R24
 1B58 E0E0              ldi R30,<_USB_Key+4
 1B5A F0E0              ldi R31,>_USB_Key+4
 1B5C 8791              elpm R24,Z+
 1B5E 9691              elpm R25,Z
 1B60 8C52              subi R24,44
 1B62 9140              sbci R25,1
 1B64 9D83              std y+5,R25
 1B66 8C83              std y+4,R24
 1B68 E0E0              ldi R30,<_USB_Key+2
 1B6A F0E0              ldi R31,>_USB_Key+2
 1B6C 8791              elpm R24,Z+
 1B6E 9691              elpm R25,Z
 1B70 8E5A              subi R24,174  ; offset = 82
 1B72 9F4F              sbci R25,255
 1B74 9B83              std y+3,R25
 1B76 8A83              std y+2,R24
 1B78 C101              movw R24,R2
 1B7A 8C52              subi R24,44
 1B7C 9140              sbci R25,1
 1B7E 9983              std y+1,R25
 1B80 8883              std y+0,R24
 1B82 2AE1              ldi R18,26
 1B84 0027              clr R16
 1B86 0E940000          xcall _cut_pic
 1B8A                   .dbline 915
 1B8A           ;    Up_Pic();
 1B8A 0E940000          xcall _Up_Pic
 1B8E                   .dbline 916
 1B8E           ;    Delay_MS(1000);
 1B8E 08EE              ldi R16,1000
 1B90 13E0              ldi R17,3
 1B92 0E940000          xcall _Delay_MS
 1B96                   .dbline 917
 1B96           ;    DisWelcome();
 1B96 0E945302          xcall _DisWelcome
 1B9A                   .dbline 918
 1B9A           ;    DisPage=WELCOMEPAGE;
 1B9A 2224              clr R2
 1B9C 20920000          sts _DisPage,R2
 1BA0                   .dbline 919
 1BA0           ;  }
 1BA0 09C0              xjmp L470
 1BA2           L469:
 1BA2                   .dbline 920
 1BA2           ;  else if(KeyID==2)
 1BA2 80910000          lds R24,_KeyID
 1BA6 8230              cpi R24,2
 1BA8 29F4              brne L475
 1BAA           X199:
 1BAA                   .dbline 921
 1BAA           ;  {
 1BAA                   .dbline 922
 1BAA           ;    DisWelcome();
 1BAA 0E945302          xcall _DisWelcome
 1BAE                   .dbline 923
 1BAE           ;    DisPage=WELCOMEPAGE;
 1BAE 2224              clr R2
 1BB0 20920000          sts _DisPage,R2
 1BB4                   .dbline 924
 1BB4           ;  } 
 1BB4           L475:
 1BB4           L470:
 1BB4                   .dbline -2
 1BB4           L466:
 1BB4                   .dbline 0 ; func end
 1BB4 2C96              adiw R28,12
 1BB6 0895              ret
 1BB8                   .dbend
 1BB8                   .dbfunc e CardKeyDown _CardKeyDown fV
                        .even
 1BB8           _CardKeyDown::
 1BB8 4A93              st -y,R20
 1BBA 5A93              st -y,R21
 1BBC 2C97              sbiw R28,12
 1BBE                   .dbline -1
 1BBE                   .dbline 927
 1BBE           ; }
 1BBE           ; void CardKeyDown(void)
 1BBE           ; {
 1BBE                   .dbline 928
 1BBE           ;  if(DisPage!=CARDPAGE) return;
 1BBE 80910000          lds R24,_DisPage
 1BC2 8830              cpi R24,8
 1BC4 09F0              breq L478
 1BC6           X201:
 1BC6                   .dbline 928
 1BC6 36C3              xjmp L477
 1BC8           L478:
 1BC8                   .dbline 929
 1BC8           ;  KeyID=GetKeyID(Card_Key,16);
 1BC8 20E1              ldi R18,16
 1BCA 00E0              ldi R16,<_Card_Key
 1BCC 10E0              ldi R17,>_Card_Key
 1BCE 0E949F03          xcall _GetKeyID
 1BD2 00930000          sts _KeyID,R16
 1BD6                   .dbline 930
 1BD6           ;  if(KeyID<15)
 1BD6 802F              mov R24,R16
 1BD8 0F30              cpi R16,15
 1BDA 08F0              brlo X229
 1BDC 43C0              xjmp L480
 1BDE           X229:
 1BDE           X202:
 1BDE                   .dbline 931
 1BDE           ;  {
 1BDE                   .dbline 932
 1BDE           ;    cut_pic(0,18,Card_Key[KeyID].XS-29,Card_Key[KeyID].YS-100,Card_Key[KeyID].XE-29,Card_Key[KeyID].YE-100,Card_Key[KeyID].XS,Card_Key[KeyID].YS);
 1BDE 282E              mov R2,R24
 1BE0 3324              clr R3
 1BE2 220C              lsl R2
 1BE4 331C              rol R3
 1BE6 220C              lsl R2
 1BE8 331C              rol R3
 1BEA 220C              lsl R2
 1BEC 331C              rol R3
 1BEE 2101              movw R4,R2
 1BF0 80E0              ldi R24,<_Card_Key+2
 1BF2 90E0              ldi R25,>_Card_Key+2
 1BF4 F101              movw R30,R2
 1BF6 E80F              add R30,R24
 1BF8 F91F              adc R31,R25
 1BFA 2790              elpm R2,Z+
 1BFC 3690              elpm R3,Z
 1BFE 3B86              std y+11,R3
 1C00 2A86              std y+10,R2
 1C02 80E0              ldi R24,<_Card_Key
 1C04 90E0              ldi R25,>_Card_Key
 1C06 F201              movw R30,R4
 1C08 E80F              add R30,R24
 1C0A F91F              adc R31,R25
 1C0C 4791              elpm R20,Z+
 1C0E 5691              elpm R21,Z
 1C10 5987              std y+9,R21
 1C12 4887              std y+8,R20
 1C14 80E0              ldi R24,<_Card_Key+6
 1C16 90E0              ldi R25,>_Card_Key+6
 1C18 F201              movw R30,R4
 1C1A E80F              add R30,R24
 1C1C F91F              adc R31,R25
 1C1E 8791              elpm R24,Z+
 1C20 9691              elpm R25,Z
 1C22 8456              subi R24,100
 1C24 9040              sbci R25,0
 1C26 9F83              std y+7,R25
 1C28 8E83              std y+6,R24
 1C2A 80E0              ldi R24,<_Card_Key+4
 1C2C 90E0              ldi R25,>_Card_Key+4
 1C2E F201              movw R30,R4
 1C30 E80F              add R30,R24
 1C32 F91F              adc R31,R25
 1C34 8791              elpm R24,Z+
 1C36 9691              elpm R25,Z
 1C38 4D97              sbiw R24,29
 1C3A 9D83              std y+5,R25
 1C3C 8C83              std y+4,R24
 1C3E 80E0              ldi R24,<_Card_Key+2
 1C40 90E0              ldi R25,>_Card_Key+2
 1C42 F201              movw R30,R4
 1C44 E80F              add R30,R24
 1C46 F91F              adc R31,R25
 1C48 8791              elpm R24,Z+
 1C4A 9691              elpm R25,Z
 1C4C 8456              subi R24,100
 1C4E 9040              sbci R25,0
 1C50 9B83              std y+3,R25
 1C52 8A83              std y+2,R24
 1C54 CA01              movw R24,R20
 1C56 4D97              sbiw R24,29
 1C58 9983              std y+1,R25
 1C5A 8883              std y+0,R24
 1C5C 22E1              ldi R18,18
 1C5E 0027              clr R16
 1C60 0E940000          xcall _cut_pic
 1C64                   .dbline 933
 1C64           ;  }
 1C64           L480:
 1C64                   .dbline 934
 1C64           ;  if((KeyID<10)&&(text_ptr<9))
 1C64 80910000          lds R24,_KeyID
 1C68 8A30              cpi R24,10
 1C6A 08F0              brlo X230
 1C6C 5CC0              xjmp L486
 1C6E           X230:
 1C6E           X203:
 1C6E 80910000          lds R24,_text_ptr
 1C72 8930              cpi R24,9
 1C74 08F0              brlo X231
 1C76 57C0              xjmp L486
 1C78           X231:
 1C78           X204:
 1C78                   .dbline 935
 1C78           ;  {
 1C78                   .dbline 936
 1C78           ;    Text[text_ptr]=KeyID+'0';
 1C78 80E0              ldi R24,<_Text
 1C7A 90E0              ldi R25,>_Text
 1C7C E0910000          lds R30,_text_ptr
 1C80 FF27              clr R31
 1C82 E80F              add R30,R24
 1C84 F91F              adc R31,R25
 1C86 80910000          lds R24,_KeyID
 1C8A 805D              subi R24,208    ; addi 48
 1C8C 8083              std z+0,R24
 1C8E                   .dbline 937
 1C8E           ;    Text[10]=Text[text_ptr];
 1C8E 80E0              ldi R24,<_Text
 1C90 90E0              ldi R25,>_Text
 1C92 E0910000          lds R30,_text_ptr
 1C96 FF27              clr R31
 1C98 E80F              add R30,R24
 1C9A F91F              adc R31,R25
 1C9C 2080              ldd R2,z+0
 1C9E 20920A00          sts _Text+10,R2
 1CA2                   .dbline 938
 1CA2           ;    if(text_ptr<3) print_texts(343+text_ptr*12,152,0,0xD1,2,0xffff,0x04bb,&Text[10]);
 1CA2 80910000          lds R24,_text_ptr
 1CA6 8330              cpi R24,3
 1CA8 F0F4              brsh L489
 1CAA           X205:
 1CAA                   .dbline 938
 1CAA 80E0              ldi R24,<_Text+10
 1CAC 90E0              ldi R25,>_Text+10
 1CAE 9B87              std y+11,R25
 1CB0 8A87              std y+10,R24
 1CB2 8BEB              ldi R24,1211
 1CB4 94E0              ldi R25,4
 1CB6 9987              std y+9,R25
 1CB8 8887              std y+8,R24
 1CBA 8FEF              ldi R24,65535
 1CBC 9FEF              ldi R25,255
 1CBE 9F83              std y+7,R25
 1CC0 8E83              std y+6,R24
 1CC2 82E0              ldi R24,2
 1CC4 8C83              std y+4,R24
 1CC6 81ED              ldi R24,209
 1CC8 8A83              std y+2,R24
 1CCA 2224              clr R2
 1CCC 2882              std y+0,R2
 1CCE 28E9              ldi R18,152
 1CD0 30E0              ldi R19,0
 1CD2 10910000          lds R17,_text_ptr
 1CD6 0CE0              ldi R16,12
 1CD8 0103              mulsu R16,R17
 1CDA 8001              movw R16,R0
 1CDC 095A              subi R16,169  ; offset = 343
 1CDE 1E4F              sbci R17,254
 1CE0 0E940000          xcall _print_texts
 1CE4 A7C2              xjmp L487
 1CE6           L489:
 1CE6                   .dbline 939
 1CE6           ;    else print_texts(482+(text_ptr-4)*12,152,0,0xD1,2,0xffff,0x04bb,&Text[10]);
 1CE6 80E0              ldi R24,<_Text+10
 1CE8 90E0              ldi R25,>_Text+10
 1CEA 9B87              std y+11,R25
 1CEC 8A87              std y+10,R24
 1CEE 8BEB              ldi R24,1211
 1CF0 94E0              ldi R25,4
 1CF2 9987              std y+9,R25
 1CF4 8887              std y+8,R24
 1CF6 8FEF              ldi R24,65535
 1CF8 9FEF              ldi R25,255
 1CFA 9F83              std y+7,R25
 1CFC 8E83              std y+6,R24
 1CFE 82E0              ldi R24,2
 1D00 8C83              std y+4,R24
 1D02 81ED              ldi R24,209
 1D04 8A83              std y+2,R24
 1D06 2224              clr R2
 1D08 2882              std y+0,R2
 1D0A 28E9              ldi R18,152
 1D0C 30E0              ldi R19,0
 1D0E 10910000          lds R17,_text_ptr
 1D12 0CE0              ldi R16,12
 1D14 0103              mulsu R16,R17
 1D16 8001              movw R16,R0
 1D18 0053              subi R16,48
 1D1A 1040              sbci R17,0
 1D1C 0E51              subi R16,30  ; offset = 482
 1D1E 1E4F              sbci R17,254
 1D20 0E940000          xcall _print_texts
 1D24                   .dbline 940
 1D24           ;  }
 1D24 87C2              xjmp L487
 1D26           L486:
 1D26                   .dbline 941
 1D26           ;  else if((KeyID==10)&&(text_ptr<9))
 1D26 80910000          lds R24,_KeyID
 1D2A 8A30              cpi R24,10
 1D2C 09F0              breq X232
 1D2E 9DC0              xjmp L493
 1D30           X232:
 1D30           X206:
 1D30 80910000          lds R24,_text_ptr
 1D34 8930              cpi R24,9
 1D36 08F0              brlo X233
 1D38 98C0              xjmp L493
 1D3A           X233:
 1D3A           X207:
 1D3A                   .dbline 942
 1D3A           ;  {
 1D3A                   .dbline 943
 1D3A           ;    print_texts(343,152,0,0xD1,2,0x04bb,0xffff,Text);
 1D3A 80E0              ldi R24,<_Text
 1D3C 90E0              ldi R25,>_Text
 1D3E 9B87              std y+11,R25
 1D40 8A87              std y+10,R24
 1D42 8FEF              ldi R24,65535
 1D44 9FEF              ldi R25,255
 1D46 9987              std y+9,R25
 1D48 8887              std y+8,R24
 1D4A 8BEB              ldi R24,1211
 1D4C 94E0              ldi R25,4
 1D4E 9F83              std y+7,R25
 1D50 8E83              std y+6,R24
 1D52 82E0              ldi R24,2
 1D54 8C83              std y+4,R24
 1D56 81ED              ldi R24,209
 1D58 8A83              std y+2,R24
 1D5A 2224              clr R2
 1D5C 2882              std y+0,R2
 1D5E 28E9              ldi R18,152
 1D60 30E0              ldi R19,0
 1D62 07E5              ldi R16,343
 1D64 11E0              ldi R17,1
 1D66 0E940000          xcall _print_texts
 1D6A                   .dbline 944
 1D6A           ;    print_texts(482,152,0,0xD1,2,0x04bb,0xffff,&Text[4]);
 1D6A 80E0              ldi R24,<_Text+4
 1D6C 90E0              ldi R25,>_Text+4
 1D6E 9B87              std y+11,R25
 1D70 8A87              std y+10,R24
 1D72 8FEF              ldi R24,65535
 1D74 9FEF              ldi R25,255
 1D76 9987              std y+9,R25
 1D78 8887              std y+8,R24
 1D7A 8BEB              ldi R24,1211
 1D7C 94E0              ldi R25,4
 1D7E 9F83              std y+7,R25
 1D80 8E83              std y+6,R24
 1D82 82E0              ldi R24,2
 1D84 8C83              std y+4,R24
 1D86 81ED              ldi R24,209
 1D88 8A83              std y+2,R24
 1D8A 2224              clr R2
 1D8C 2882              std y+0,R2
 1D8E 28E9              ldi R18,152
 1D90 30E0              ldi R19,0
 1D92 02EE              ldi R16,482
 1D94 11E0              ldi R17,1
 1D96 0E940000          xcall _print_texts
 1D9A                   .dbline 945
 1D9A           ;    if(text_ptr<3)
 1D9A 80910000          lds R24,_text_ptr
 1D9E 8330              cpi R24,3
 1DA0 88F5              brsh L496
 1DA2           X208:
 1DA2                   .dbline 946
 1DA2           ;    {
 1DA2                   .dbline 947
 1DA2           ;     if(text_ptr>0) text_ptr--;
 1DA2 80E0              ldi R24,0
 1DA4 20900000          lds R2,_text_ptr
 1DA8 8215              cp R24,R2
 1DAA 20F4              brsh L498
 1DAC           X209:
 1DAC                   .dbline 947
 1DAC 822D              mov R24,R2
 1DAE 8150              subi R24,1
 1DB0 80930000          sts _text_ptr,R24
 1DB4           L498:
 1DB4                   .dbline 948
 1DB4           ;       Text[10]=Text[text_ptr];
 1DB4 80E0              ldi R24,<_Text
 1DB6 90E0              ldi R25,>_Text
 1DB8 E0910000          lds R30,_text_ptr
 1DBC FF27              clr R31
 1DBE E80F              add R30,R24
 1DC0 F91F              adc R31,R25
 1DC2 2080              ldd R2,z+0
 1DC4 20920A00          sts _Text+10,R2
 1DC8                   .dbline 949
 1DC8           ;       print_texts(343+text_ptr*12,152,0,0xD1,2,0xffff,0x04bb,&Text[10]);
 1DC8 80E0              ldi R24,<_Text+10
 1DCA 90E0              ldi R25,>_Text+10
 1DCC 9B87              std y+11,R25
 1DCE 8A87              std y+10,R24
 1DD0 8BEB              ldi R24,1211
 1DD2 94E0              ldi R25,4
 1DD4 9987              std y+9,R25
 1DD6 8887              std y+8,R24
 1DD8 8FEF              ldi R24,65535
 1DDA 9FEF              ldi R25,255
 1DDC 9F83              std y+7,R25
 1DDE 8E83              std y+6,R24
 1DE0 82E0              ldi R24,2
 1DE2 8C83              std y+4,R24
 1DE4 81ED              ldi R24,209
 1DE6 8A83              std y+2,R24
 1DE8 2224              clr R2
 1DEA 2882              std y+0,R2
 1DEC 28E9              ldi R18,152
 1DEE 30E0              ldi R19,0
 1DF0 10910000          lds R17,_text_ptr
 1DF4 0CE0              ldi R16,12
 1DF6 0103              mulsu R16,R17
 1DF8 8001              movw R16,R0
 1DFA 095A              subi R16,169  ; offset = 343
 1DFC 1E4F              sbci R17,254
 1DFE 0E940000          xcall _print_texts
 1E02                   .dbline 950
 1E02           ;    }
 1E02 18C2              xjmp L494
 1E04           L496:
 1E04                   .dbline 952
 1E04           ;    else
 1E04           ;    {
 1E04                   .dbline 953
 1E04           ;     if(text_ptr>4) text_ptr--;
 1E04 84E0              ldi R24,4
 1E06 20900000          lds R2,_text_ptr
 1E0A 8215              cp R24,R2
 1E0C 20F4              brsh L502
 1E0E           X210:
 1E0E                   .dbline 953
 1E0E 822D              mov R24,R2
 1E10 8150              subi R24,1
 1E12 80930000          sts _text_ptr,R24
 1E16           L502:
 1E16                   .dbline 954
 1E16           ;       Text[10]=Text[text_ptr];
 1E16 80E0              ldi R24,<_Text
 1E18 90E0              ldi R25,>_Text
 1E1A E0910000          lds R30,_text_ptr
 1E1E FF27              clr R31
 1E20 E80F              add R30,R24
 1E22 F91F              adc R31,R25
 1E24 2080              ldd R2,z+0
 1E26 20920A00          sts _Text+10,R2
 1E2A                   .dbline 955
 1E2A           ;       print_texts(482+(text_ptr-4)*12,152,0,0xD1,2,0xffff,0x04bb,&Text[10]);
 1E2A 80E0              ldi R24,<_Text+10
 1E2C 90E0              ldi R25,>_Text+10
 1E2E 9B87              std y+11,R25
 1E30 8A87              std y+10,R24
 1E32 8BEB              ldi R24,1211
 1E34 94E0              ldi R25,4
 1E36 9987              std y+9,R25
 1E38 8887              std y+8,R24
 1E3A 8FEF              ldi R24,65535
 1E3C 9FEF              ldi R25,255
 1E3E 9F83              std y+7,R25
 1E40 8E83              std y+6,R24
 1E42 82E0              ldi R24,2
 1E44 8C83              std y+4,R24
 1E46 81ED              ldi R24,209
 1E48 8A83              std y+2,R24
 1E4A 2224              clr R2
 1E4C 2882              std y+0,R2
 1E4E 28E9              ldi R18,152
 1E50 30E0              ldi R19,0
 1E52 10910000          lds R17,_text_ptr
 1E56 0CE0              ldi R16,12
 1E58 0103              mulsu R16,R17
 1E5A 8001              movw R16,R0
 1E5C 0053              subi R16,48
 1E5E 1040              sbci R17,0
 1E60 0E51              subi R16,30  ; offset = 482
 1E62 1E4F              sbci R17,254
 1E64 0E940000          xcall _print_texts
 1E68                   .dbline 956
 1E68           ;    }
 1E68                   .dbline 957
 1E68           ;  }
 1E68 E5C1              xjmp L494
 1E6A           L493:
 1E6A                   .dbline 958
 1E6A           ;  else if(KeyID==11)
 1E6A 80910000          lds R24,_KeyID
 1E6E 8B30              cpi R24,11
 1E70 09F0              breq X234
 1E72 C3C0              xjmp L506
 1E74           X234:
 1E74           X211:
 1E74                   .dbline 959
 1E74           ;  {
 1E74                   .dbline 960
 1E74           ;    if(text_ptr<3)
 1E74 80910000          lds R24,_text_ptr
 1E78 8330              cpi R24,3
 1E7A E0F4              brsh L508
 1E7C           X212:
 1E7C                   .dbline 961
 1E7C           ;    {
 1E7C                   .dbline 962
 1E7C           ;      User_ID=(int)(Text[0]-'0')*100+(int)(Text[1]-'0')*10+(int)(Text[2]-'0');
 1E7C 10910100          lds R17,_Text+1
 1E80 0AE0              ldi R16,10
 1E82 0103              mulsu R16,R17
 1E84 C001              movw R24,R0
 1E86 805E              subi R24,224
 1E88 9140              sbci R25,1
 1E8A 10910000          lds R17,_Text
 1E8E 04E6              ldi R16,100
 1E90 0103              mulsu R16,R17
 1E92 F001              movw R30,R0
 1E94 E05C              subi R30,192
 1E96 F241              sbci R31,18
 1E98 E80F              add R30,R24
 1E9A F91F              adc R31,R25
 1E9C 80910200          lds R24,_Text+2
 1EA0 9927              clr R25
 1EA2 C097              sbiw R24,48
 1EA4 E80F              add R30,R24
 1EA6 F91F              adc R31,R25
 1EA8 E0930000          sts _User_ID,R30
 1EAC                   .dbline 964
 1EAC           ;        //EEPROMWriteBytes(UserIDAddr,&User_ID,1);
 1EAC           ;        Card_Data[1]=User_ID;
 1EAC 2E2E              mov R2,R30
 1EAE 20920100          sts _Card_Data+1,R2
 1EB2                   .dbline 965
 1EB2           ;    }
 1EB2 6FC0              xjmp L509
 1EB4           L508:
 1EB4                   .dbline 967
 1EB4           ;    else
 1EB4           ;    {
 1EB4                   .dbline 968
 1EB4           ;      User_Counter=(int)(Text[4]-'0')*10000+(int)(Text[5]-'0')*1000+(int)(Text[6]-'0')*100+(int)(Text[7]-'0')*10+(int)(Text[8]-'0');
 1EB4 20910500          lds R18,_Text+5
 1EB8 3327              clr R19
 1EBA 08EE              ldi R16,1000
 1EBC 13E0              ldi R17,3
 1EBE 0E940000          xcall empy16s
 1EC2 C801              movw R24,R16
 1EC4 8058              subi R24,128
 1EC6 9B4B              sbci R25,187
 1EC8 20910400          lds R18,_Text+4
 1ECC 3327              clr R19
 1ECE 00E1              ldi R16,10000
 1ED0 17E2              ldi R17,39
 1ED2 0E940000          xcall empy16s
 1ED6 F801              movw R30,R16
 1ED8 E050              subi R30,0
 1EDA F345              sbci R31,83
 1EDC 1F01              movw R2,R30
 1EDE 280E              add R2,R24
 1EE0 391E              adc R3,R25
 1EE2 10910600          lds R17,_Text+6
 1EE6 04E6              ldi R16,100
 1EE8 0103              mulsu R16,R17
 1EEA C001              movw R24,R0
 1EEC 805C              subi R24,192
 1EEE 9241              sbci R25,18
 1EF0 280E              add R2,R24
 1EF2 391E              adc R3,R25
 1EF4 10910700          lds R17,_Text+7
 1EF8 0AE0              ldi R16,10
 1EFA 0103              mulsu R16,R17
 1EFC C001              movw R24,R0
 1EFE 805E              subi R24,224
 1F00 9140              sbci R25,1
 1F02 280E              add R2,R24
 1F04 391E              adc R3,R25
 1F06 80910800          lds R24,_Text+8
 1F0A 9927              clr R25
 1F0C C097              sbiw R24,48
 1F0E 280E              add R2,R24
 1F10 391E              adc R3,R25
 1F12 30920100          sts _User_Counter+1,R3
 1F16 20920000          sts _User_Counter,R2
 1F1A                   .dbline 969
 1F1A           ;        if(User_Type>0)//忱???
 1F1A 80E0              ldi R24,0
 1F1C 20900000          lds R2,_User_Type
 1F20 8215              cp R24,R2
 1F22 E8F4              brsh L518
 1F24           X213:
 1F24                   .dbline 970
 1F24           ;      {
 1F24                   .dbline 971
 1F24           ;        if((User_Type<Card_Type)&&(Card_Type<4)) return;
 1F24 40910000          lds R20,_Card_Type
 1F28 2416              cp R2,R20
 1F2A 18F4              brsh L520
 1F2C           X214:
 1F2C 4430              cpi R20,4
 1F2E 08F4              brsh L520
 1F30           X215:
 1F30                   .dbline 971
 1F30 81C1              xjmp L477
 1F32           L520:
 1F32                   .dbline 972
 1F32           ;        Card_Data[0]=User_Type;
 1F32 20900000          lds R2,_User_Type
 1F36 20920000          sts _Card_Data,R2
 1F3A                   .dbline 973
 1F3A           ;        Card_Data[1]=User_ID;
 1F3A 20900000          lds R2,_User_ID
 1F3E 20920100          sts _Card_Data+1,R2
 1F42                   .dbline 974
 1F42           ;        Card_Data[2]=User_Counter;
 1F42 20900000          lds R2,_User_Counter
 1F46 30900100          lds R3,_User_Counter+1
 1F4A 20920200          sts _Card_Data+2,R2
 1F4E                   .dbline 975
 1F4E           ;        Card_Data[3]=User_Counter>>8;
 1F4E 232C              mov R2,R3
 1F50 3324              clr R3
 1F52 20920300          sts _Card_Data+3,R2
 1F56                   .dbline 976
 1F56           ;        Card_Command=2;
 1F56 82E0              ldi R24,2
 1F58 80930000          sts _Card_Command,R24
 1F5C                   .dbline 977
 1F5C           ;      }
 1F5C 1AC0              xjmp L519
 1F5E           L518:
 1F5E                   .dbline 978
 1F5E           ;      else if((Card_Type>1)&&(Card_Type<4))//忱???
 1F5E 40910000          lds R20,_Card_Type
 1F62 81E0              ldi R24,1
 1F64 8417              cp R24,R20
 1F66 A8F4              brsh L525
 1F68           X216:
 1F68 4430              cpi R20,4
 1F6A 98F4              brsh L525
 1F6C           X217:
 1F6C                   .dbline 979
 1F6C           ;      {
 1F6C                   .dbline 980
 1F6C           ;        Card_Data[0]=Card_Type;
 1F6C 242E              mov R2,R20
 1F6E 20920000          sts _Card_Data,R2
 1F72                   .dbline 981
 1F72           ;        Card_Data[1]=User_ID;
 1F72 20900000          lds R2,_User_ID
 1F76 20920100          sts _Card_Data+1,R2
 1F7A                   .dbline 982
 1F7A           ;        Card_Data[2]=User_Counter;
 1F7A 20900000          lds R2,_User_Counter
 1F7E 30900100          lds R3,_User_Counter+1
 1F82 20920200          sts _Card_Data+2,R2
 1F86                   .dbline 983
 1F86           ;        Card_Data[3]=User_Counter>>8;
 1F86 232C              mov R2,R3
 1F88 3324              clr R3
 1F8A 20920300          sts _Card_Data+3,R2
 1F8E                   .dbline 984
 1F8E           ;        Card_Command=1;
 1F8E 80930000          sts _Card_Command,R24
 1F92                   .dbline 985
 1F92           ;      }
 1F92           L525:
 1F92           L519:
 1F92                   .dbline 986
 1F92           ;    }
 1F92           L509:
 1F92                   .dbline 987
 1F92           ;    text_ptr=255;
 1F92 8FEF              ldi R24,255
 1F94 80930000          sts _text_ptr,R24
 1F98                   .dbline 988
 1F98           ;    print_texts(343,152,0,0xD1,2,0x04bb,0xffff,Text);
 1F98 80E0              ldi R24,<_Text
 1F9A 90E0              ldi R25,>_Text
 1F9C 9B87              std y+11,R25
 1F9E 8A87              std y+10,R24
 1FA0 8FEF              ldi R24,65535
 1FA2 9FEF              ldi R25,255
 1FA4 9987              std y+9,R25
 1FA6 8887              std y+8,R24
 1FA8 8BEB              ldi R24,1211
 1FAA 94E0              ldi R25,4
 1FAC 9F83              std y+7,R25
 1FAE 8E83              std y+6,R24
 1FB0 82E0              ldi R24,2
 1FB2 8C83              std y+4,R24
 1FB4 81ED              ldi R24,209
 1FB6 8A83              std y+2,R24
 1FB8 2224              clr R2
 1FBA 2882              std y+0,R2
 1FBC 28E9              ldi R18,152
 1FBE 30E0              ldi R19,0
 1FC0 07E5              ldi R16,343
 1FC2 11E0              ldi R17,1
 1FC4 0E940000          xcall _print_texts
 1FC8                   .dbline 989
 1FC8           ;    print_texts(482,152,0,0xD1,2,0x04bb,0xffff,&Text[4]);
 1FC8 80E0              ldi R24,<_Text+4
 1FCA 90E0              ldi R25,>_Text+4
 1FCC 9B87              std y+11,R25
 1FCE 8A87              std y+10,R24
 1FD0 8FEF              ldi R24,65535
 1FD2 9FEF              ldi R25,255
 1FD4 9987              std y+9,R25
 1FD6 8887              std y+8,R24
 1FD8 8BEB              ldi R24,1211
 1FDA 94E0              ldi R25,4
 1FDC 9F83              std y+7,R25
 1FDE 8E83              std y+6,R24
 1FE0 82E0              ldi R24,2
 1FE2 8C83              std y+4,R24
 1FE4 81ED              ldi R24,209
 1FE6 8A83              std y+2,R24
 1FE8 2224              clr R2
 1FEA 2882              std y+0,R2
 1FEC 28E9              ldi R18,152
 1FEE 30E0              ldi R19,0
 1FF0 02EE              ldi R16,482
 1FF2 11E0              ldi R17,1
 1FF4 0E940000          xcall _print_texts
 1FF8                   .dbline 990
 1FF8           ;  }
 1FF8 1DC1              xjmp L507
 1FFA           L506:
 1FFA                   .dbline 991
 1FFA           ;  else if(KeyID==12)
 1FFA 80910000          lds R24,_KeyID
 1FFE 8C30              cpi R24,12
 2000 09F0              breq X235
 2002 66C0              xjmp L531
 2004           X235:
 2004           X218:
 2004                   .dbline 992
 2004           ;  {
 2004                   .dbline 993
 2004           ;    if(Card_Type==3)
 2004 80910000          lds R24,_Card_Type
 2008 8330              cpi R24,3
 200A 09F0              breq X236
 200C 13C1              xjmp L532
 200E           X236:
 200E           X219:
 200E                   .dbline 994
 200E           ;    {
 200E                   .dbline 995
 200E           ;      if(text_ptr<2) text_ptr++;
 200E 80910000          lds R24,_text_ptr
 2012 8230              cpi R24,2
 2014 20F4              brsh L535
 2016           X220:
 2016                   .dbline 995
 2016 8F5F              subi R24,255    ; addi 1
 2018 80930000          sts _text_ptr,R24
 201C 03C0              xjmp L536
 201E           L535:
 201E                   .dbline 996
 201E           ;      else text_ptr=0;
 201E 2224              clr R2
 2020 20920000          sts _text_ptr,R2
 2024           L536:
 2024                   .dbline 997
 2024           ;      Text[10]=Text[text_ptr];
 2024 80E0              ldi R24,<_Text
 2026 90E0              ldi R25,>_Text
 2028 E0910000          lds R30,_text_ptr
 202C FF27              clr R31
 202E E80F              add R30,R24
 2030 F91F              adc R31,R25
 2032 2080              ldd R2,z+0
 2034 20920A00          sts _Text+10,R2
 2038                   .dbline 998
 2038           ;      print_texts(343,152,0,0xD1,2,0x04bb,0xffff,Text);
 2038 9B87              std y+11,R25
 203A 8A87              std y+10,R24
 203C 8FEF              ldi R24,65535
 203E 9FEF              ldi R25,255
 2040 9987              std y+9,R25
 2042 8887              std y+8,R24
 2044 8BEB              ldi R24,1211
 2046 94E0              ldi R25,4
 2048 9F83              std y+7,R25
 204A 8E83              std y+6,R24
 204C 82E0              ldi R24,2
 204E 8C83              std y+4,R24
 2050 81ED              ldi R24,209
 2052 8A83              std y+2,R24
 2054 2224              clr R2
 2056 2882              std y+0,R2
 2058 28E9              ldi R18,152
 205A 30E0              ldi R19,0
 205C 07E5              ldi R16,343
 205E 11E0              ldi R17,1
 2060 0E940000          xcall _print_texts
 2064                   .dbline 999
 2064           ;      print_texts(343+text_ptr*12,152,0,0xD1,2,0xffff,0x04bb,&Text[10]);
 2064 80E0              ldi R24,<_Text+10
 2066 90E0              ldi R25,>_Text+10
 2068 9B87              std y+11,R25
 206A 8A87              std y+10,R24
 206C 8BEB              ldi R24,1211
 206E 94E0              ldi R25,4
 2070 9987              std y+9,R25
 2072 8887              std y+8,R24
 2074 8FEF              ldi R24,65535
 2076 9FEF              ldi R25,255
 2078 9F83              std y+7,R25
 207A 8E83              std y+6,R24
 207C 82E0              ldi R24,2
 207E 8C83              std y+4,R24
 2080 81ED              ldi R24,209
 2082 8A83              std y+2,R24
 2084 2224              clr R2
 2086 2882              std y+0,R2
 2088 28E9              ldi R18,152
 208A 30E0              ldi R19,0
 208C 10910000          lds R17,_text_ptr
 2090 0CE0              ldi R16,12
 2092 0103              mulsu R16,R17
 2094 8001              movw R16,R0
 2096 095A              subi R16,169  ; offset = 343
 2098 1E4F              sbci R17,254
 209A 0E940000          xcall _print_texts
 209E                   .dbline 1000
 209E           ;      print_texts(482,152,0,0xD1,2,0x04bb,0xffff,&Text[4]);
 209E 80E0              ldi R24,<_Text+4
 20A0 90E0              ldi R25,>_Text+4
 20A2 9B87              std y+11,R25
 20A4 8A87              std y+10,R24
 20A6 8FEF              ldi R24,65535
 20A8 9FEF              ldi R25,255
 20AA 9987              std y+9,R25
 20AC 8887              std y+8,R24
 20AE 8BEB              ldi R24,1211
 20B0 94E0              ldi R25,4
 20B2 9F83              std y+7,R25
 20B4 8E83              std y+6,R24
 20B6 82E0              ldi R24,2
 20B8 8C83              std y+4,R24
 20BA 81ED              ldi R24,209
 20BC 8A83              std y+2,R24
 20BE 2224              clr R2
 20C0 2882              std y+0,R2
 20C2 28E9              ldi R18,152
 20C4 30E0              ldi R19,0
 20C6 02EE              ldi R16,482
 20C8 11E0              ldi R17,1
 20CA 0E940000          xcall _print_texts
 20CE                   .dbline 1001
 20CE           ;    }
 20CE                   .dbline 1002
 20CE           ;  }
 20CE B2C0              xjmp L532
 20D0           L531:
 20D0                   .dbline 1003
 20D0           ;  else if(KeyID==13)
 20D0 80910000          lds R24,_KeyID
 20D4 8D30              cpi R24,13
 20D6 09F0              breq X237
 20D8 3FC0              xjmp L540
 20DA           X237:
 20DA           X221:
 20DA                   .dbline 1004
 20DA           ;  {
 20DA                   .dbline 1005
 20DA           ;    if(Card_Type==3)
 20DA 80910000          lds R24,_Card_Type
 20DE 8330              cpi R24,3
 20E0 61F4              brne L542
 20E2           X222:
 20E2                   .dbline 1006
 20E2           ;    {
 20E2                   .dbline 1007
 20E2           ;     if(User_Type<3) User_Type++;
 20E2 80910000          lds R24,_User_Type
 20E6 8330              cpi R24,3
 20E8 20F4              brsh L544
 20EA           X223:
 20EA                   .dbline 1007
 20EA 8F5F              subi R24,255    ; addi 1
 20EC 80930000          sts _User_Type,R24
 20F0 13C0              xjmp L543
 20F2           L544:
 20F2                   .dbline 1008
 20F2           ;     else User_Type=0;
 20F2 2224              clr R2
 20F4 20920000          sts _User_Type,R2
 20F8                   .dbline 1009
 20F8           ;    }
 20F8 0FC0              xjmp L543
 20FA           L542:
 20FA                   .dbline 1010
 20FA           ;    else if(Card_Type==2)
 20FA 80910000          lds R24,_Card_Type
 20FE 8230              cpi R24,2
 2100 59F4              brne L546
 2102           X224:
 2102                   .dbline 1011
 2102           ;    {
 2102                   .dbline 1012
 2102           ;     if(User_Type<1) User_Type++;
 2102 80910000          lds R24,_User_Type
 2106 8130              cpi R24,1
 2108 20F4              brsh L548
 210A           X225:
 210A                   .dbline 1012
 210A 8F5F              subi R24,255    ; addi 1
 210C 80930000          sts _User_Type,R24
 2110 03C0              xjmp L549
 2112           L548:
 2112                   .dbline 1013
 2112           ;     else User_Type=0;
 2112 2224              clr R2
 2114 20920000          sts _User_Type,R2
 2118           L549:
 2118                   .dbline 1014
 2118           ;    }
 2118           L546:
 2118           L543:
 2118                   .dbline 1015
 2118           ;    print_consttexts(406,152,0,0xC1,2,0x04bb,0xffff,&user_type[User_Type][0]);
 2118 10910000          lds R17,_User_Type
 211C 06E0              ldi R16,6
 211E 0103              mulsu R16,R17
 2120 1001              movw R2,R0
 2122 80E0              ldi R24,<_user_type
 2124 90E0              ldi R25,>_user_type
 2126 280E              add R2,R24
 2128 391E              adc R3,R25
 212A 3B86              std y+11,R3
 212C 2A86              std y+10,R2
 212E 8FEF              ldi R24,65535
 2130 9FEF              ldi R25,255
 2132 9987              std y+9,R25
 2134 8887              std y+8,R24
 2136 8BEB              ldi R24,1211
 2138 94E0              ldi R25,4
 213A 9F83              std y+7,R25
 213C 8E83              std y+6,R24
 213E 82E0              ldi R24,2
 2140 8C83              std y+4,R24
 2142 81EC              ldi R24,193
 2144 8A83              std y+2,R24
 2146 2224              clr R2
 2148 2882              std y+0,R2
 214A 28E9              ldi R18,152
 214C 30E0              ldi R19,0
 214E 06E9              ldi R16,406
 2150 11E0              ldi R17,1
 2152 0E940000          xcall _print_consttexts
 2156                   .dbline 1016
 2156           ;  }
 2156 6EC0              xjmp L541
 2158           L540:
 2158                   .dbline 1017
 2158           ;  else if(KeyID==14)
 2158 80910000          lds R24,_KeyID
 215C 8E30              cpi R24,14
 215E 09F0              breq X238
 2160 69C0              xjmp L550
 2162           X238:
 2162           X226:
 2162                   .dbline 1018
 2162           ;  {
 2162                   .dbline 1019
 2162           ;    if(text_ptr<8) text_ptr++;
 2162 80910000          lds R24,_text_ptr
 2166 8830              cpi R24,8
 2168 20F4              brsh L552
 216A           X227:
 216A                   .dbline 1019
 216A 8F5F              subi R24,255    ; addi 1
 216C 80930000          sts _text_ptr,R24
 2170 03C0              xjmp L553
 2172           L552:
 2172                   .dbline 1020
 2172           ;    else text_ptr=4;
 2172 84E0              ldi R24,4
 2174 80930000          sts _text_ptr,R24
 2178           L553:
 2178                   .dbline 1021
 2178           ;    if(text_ptr<4) text_ptr=4;
 2178 80910000          lds R24,_text_ptr
 217C 8430              cpi R24,4
 217E 18F4              brsh L554
 2180           X228:
 2180                   .dbline 1021
 2180 84E0              ldi R24,4
 2182 80930000          sts _text_ptr,R24
 2186           L554:
 2186                   .dbline 1022
 2186           ;    Text[10]=Text[text_ptr];
 2186 80E0              ldi R24,<_Text
 2188 90E0              ldi R25,>_Text
 218A E0910000          lds R30,_text_ptr
 218E FF27              clr R31
 2190 E80F              add R30,R24
 2192 F91F              adc R31,R25
 2194 2080              ldd R2,z+0
 2196 20920A00          sts _Text+10,R2
 219A                   .dbline 1023
 219A           ;    print_texts(343,152,0,0xD1,2,0x04bb,0xffff,Text);
 219A 9B87              std y+11,R25
 219C 8A87              std y+10,R24
 219E 8FEF              ldi R24,65535
 21A0 9FEF              ldi R25,255
 21A2 9987              std y+9,R25
 21A4 8887              std y+8,R24
 21A6 8BEB              ldi R24,1211
 21A8 94E0              ldi R25,4
 21AA 9F83              std y+7,R25
 21AC 8E83              std y+6,R24
 21AE 82E0              ldi R24,2
 21B0 8C83              std y+4,R24
 21B2 81ED              ldi R24,209
 21B4 8A83              std y+2,R24
 21B6 2224              clr R2
 21B8 2882              std y+0,R2
 21BA 28E9              ldi R18,152
 21BC 30E0              ldi R19,0
 21BE 07E5              ldi R16,343
 21C0 11E0              ldi R17,1
 21C2 0E940000          xcall _print_texts
 21C6                   .dbline 1024
 21C6           ;    print_texts(482,152,0,0xD1,2,0x04bb,0xffff,&Text[4]);
 21C6 80E0              ldi R24,<_Text+4
 21C8 90E0              ldi R25,>_Text+4
 21CA 9B87              std y+11,R25
 21CC 8A87              std y+10,R24
 21CE 8FEF              ldi R24,65535
 21D0 9FEF              ldi R25,255
 21D2 9987              std y+9,R25
 21D4 8887              std y+8,R24
 21D6 8BEB              ldi R24,1211
 21D8 94E0              ldi R25,4
 21DA 9F83              std y+7,R25
 21DC 8E83              std y+6,R24
 21DE 82E0              ldi R24,2
 21E0 8C83              std y+4,R24
 21E2 81ED              ldi R24,209
 21E4 8A83              std y+2,R24
 21E6 2224              clr R2
 21E8 2882              std y+0,R2
 21EA 28E9              ldi R18,152
 21EC 30E0              ldi R19,0
 21EE 02EE              ldi R16,482
 21F0 11E0              ldi R17,1
 21F2 0E940000          xcall _print_texts
 21F6                   .dbline 1025
 21F6           ;    print_texts(482+(text_ptr-4)*12,152,0,0xD1,2,0xffff,0x04bb,&Text[10]);
 21F6 80E0              ldi R24,<_Text+10
 21F8 90E0              ldi R25,>_Text+10
 21FA 9B87              std y+11,R25
 21FC 8A87              std y+10,R24
 21FE 8BEB              ldi R24,1211
 2200 94E0              ldi R25,4
 2202 9987              std y+9,R25
 2204 8887              std y+8,R24
 2206 8FEF              ldi R24,65535
 2208 9FEF              ldi R25,255
 220A 9F83              std y+7,R25
 220C 8E83              std y+6,R24
 220E 82E0              ldi R24,2
 2210 8C83              std y+4,R24
 2212 81ED              ldi R24,209
 2214 8A83              std y+2,R24
 2216 2224              clr R2
 2218 2882              std y+0,R2
 221A 28E9              ldi R18,152
 221C 30E0              ldi R19,0
 221E 10910000          lds R17,_text_ptr
 2222 0CE0              ldi R16,12
 2224 0103              mulsu R16,R17
 2226 8001              movw R16,R0
 2228 0053              subi R16,48
 222A 1040              sbci R17,0
 222C 0E51              subi R16,30  ; offset = 482
 222E 1E4F              sbci R17,254
 2230 0E940000          xcall _print_texts
 2234                   .dbline 1026
 2234           ;  }
 2234           L550:
 2234           L541:
 2234           L532:
 2234           L507:
 2234           L494:
 2234           L487:
 2234                   .dbline -2
 2234           L477:
 2234                   .dbline 0 ; func end
 2234 2C96              adiw R28,12
 2236 5991              ld R21,y+
 2238 4991              ld R20,y+
 223A 0895              ret
 223C                   .dbend
 223C                   .dbfunc e CardKeyUp _CardKeyUp fV
                        .even
 223C           _CardKeyUp::
 223C 2C97              sbiw R28,12
 223E                   .dbline -1
 223E                   .dbline 1029
 223E           ; }
 223E           ; void CardKeyUp(void)
 223E           ; {
 223E                   .dbline 1030
 223E           ;  if(DisPage!=CARDPAGE) return;
 223E 80910000          lds R24,_DisPage
 2242 8830              cpi R24,8
 2244 09F0              breq L560
 2246           X239:
 2246                   .dbline 1030
 2246 F7C0              xjmp L559
 2248           L560:
 2248                   .dbline 1031
 2248           ;  if(KeyID<15)
 2248 80910000          lds R24,_KeyID
 224C 8F30              cpi R24,15
 224E 08F0              brlo X247
 2250 45C0              xjmp L562
 2252           X247:
 2252           X240:
 2252                   .dbline 1032
 2252           ;  {
 2252                   .dbline 1033
 2252           ;    cut_pic(0,18,Card_Key[KeyID].XS-300,Card_Key[KeyID].YS-100,Card_Key[KeyID].XE-300,Card_Key[KeyID].YE-100,Card_Key[KeyID].XS,Card_Key[KeyID].YS);
 2252 282E              mov R2,R24
 2254 3324              clr R3
 2256 220C              lsl R2
 2258 331C              rol R3
 225A 220C              lsl R2
 225C 331C              rol R3
 225E 220C              lsl R2
 2260 331C              rol R3
 2262 2101              movw R4,R2
 2264 80E0              ldi R24,<_Card_Key+2
 2266 90E0              ldi R25,>_Card_Key+2
 2268 F101              movw R30,R2
 226A E80F              add R30,R24
 226C F91F              adc R31,R25
 226E 2790              elpm R2,Z+
 2270 3690              elpm R3,Z
 2272 3B86              std y+11,R3
 2274 2A86              std y+10,R2
 2276 80E0              ldi R24,<_Card_Key
 2278 90E0              ldi R25,>_Card_Key
 227A F201              movw R30,R4
 227C E80F              add R30,R24
 227E F91F              adc R31,R25
 2280 2790              elpm R2,Z+
 2282 3690              elpm R3,Z
 2284 3986              std y+9,R3
 2286 2886              std y+8,R2
 2288 80E0              ldi R24,<_Card_Key+6
 228A 90E0              ldi R25,>_Card_Key+6
 228C F201              movw R30,R4
 228E E80F              add R30,R24
 2290 F91F              adc R31,R25
 2292 8791              elpm R24,Z+
 2294 9691              elpm R25,Z
 2296 8456              subi R24,100
 2298 9040              sbci R25,0
 229A 9F83              std y+7,R25
 229C 8E83              std y+6,R24
 229E 80E0              ldi R24,<_Card_Key+4
 22A0 90E0              ldi R25,>_Card_Key+4
 22A2 F201              movw R30,R4
 22A4 E80F              add R30,R24
 22A6 F91F              adc R31,R25
 22A8 8791              elpm R24,Z+
 22AA 9691              elpm R25,Z
 22AC 8C52              subi R24,44
 22AE 9140              sbci R25,1
 22B0 9D83              std y+5,R25
 22B2 8C83              std y+4,R24
 22B4 80E0              ldi R24,<_Card_Key+2
 22B6 90E0              ldi R25,>_Card_Key+2
 22B8 F201              movw R30,R4
 22BA E80F              add R30,R24
 22BC F91F              adc R31,R25
 22BE 8791              elpm R24,Z+
 22C0 9691              elpm R25,Z
 22C2 8456              subi R24,100
 22C4 9040              sbci R25,0
 22C6 9B83              std y+3,R25
 22C8 8A83              std y+2,R24
 22CA C101              movw R24,R2
 22CC 8C52              subi R24,44
 22CE 9140              sbci R25,1
 22D0 9983              std y+1,R25
 22D2 8883              std y+0,R24
 22D4 22E1              ldi R18,18
 22D6 0027              clr R16
 22D8 0E940000          xcall _cut_pic
 22DC                   .dbline 1034
 22DC           ;  }
 22DC           L562:
 22DC                   .dbline 1035
 22DC           ;  if((KeyID<10)&&(text_ptr<9))
 22DC 80910000          lds R24,_KeyID
 22E0 8A30              cpi R24,10
 22E2 08F0              brlo X248
 22E4 9FC0              xjmp L568
 22E6           X248:
 22E6           X241:
 22E6 80910000          lds R24,_text_ptr
 22EA 8930              cpi R24,9
 22EC 08F0              brlo X249
 22EE 9AC0              xjmp L568
 22F0           X249:
 22F0           X242:
 22F0                   .dbline 1036
 22F0           ;  {
 22F0                   .dbline 1037
 22F0           ;    print_texts(343,152,0,0xD1,2,0x04bb,0xffff,Text);
 22F0 80E0              ldi R24,<_Text
 22F2 90E0              ldi R25,>_Text
 22F4 9B87              std y+11,R25
 22F6 8A87              std y+10,R24
 22F8 8FEF              ldi R24,65535
 22FA 9FEF              ldi R25,255
 22FC 9987              std y+9,R25
 22FE 8887              std y+8,R24
 2300 8BEB              ldi R24,1211
 2302 94E0              ldi R25,4
 2304 9F83              std y+7,R25
 2306 8E83              std y+6,R24
 2308 82E0              ldi R24,2
 230A 8C83              std y+4,R24
 230C 81ED              ldi R24,209
 230E 8A83              std y+2,R24
 2310 2224              clr R2
 2312 2882              std y+0,R2
 2314 28E9              ldi R18,152
 2316 30E0              ldi R19,0
 2318 07E5              ldi R16,343
 231A 11E0              ldi R17,1
 231C 0E940000          xcall _print_texts
 2320                   .dbline 1038
 2320           ;    print_texts(482,152,0,0xD1,2,0x04bb,0xffff,&Text[4]);
 2320 80E0              ldi R24,<_Text+4
 2322 90E0              ldi R25,>_Text+4
 2324 9B87              std y+11,R25
 2326 8A87              std y+10,R24
 2328 8FEF              ldi R24,65535
 232A 9FEF              ldi R25,255
 232C 9987              std y+9,R25
 232E 8887              std y+8,R24
 2330 8BEB              ldi R24,1211
 2332 94E0              ldi R25,4
 2334 9F83              std y+7,R25
 2336 8E83              std y+6,R24
 2338 82E0              ldi R24,2
 233A 8C83              std y+4,R24
 233C 81ED              ldi R24,209
 233E 8A83              std y+2,R24
 2340 2224              clr R2
 2342 2882              std y+0,R2
 2344 28E9              ldi R18,152
 2346 30E0              ldi R19,0
 2348 02EE              ldi R16,482
 234A 11E0              ldi R17,1
 234C 0E940000          xcall _print_texts
 2350                   .dbline 1039
 2350           ;    if(text_ptr<3)
 2350 80910000          lds R24,_text_ptr
 2354 8330              cpi R24,3
 2356 88F5              brsh L571
 2358           X243:
 2358                   .dbline 1040
 2358           ;    {
 2358                   .dbline 1041
 2358           ;     if(text_ptr<2) text_ptr++;
 2358 8230              cpi R24,2
 235A 20F4              brsh L573
 235C           X244:
 235C                   .dbline 1041
 235C 8F5F              subi R24,255    ; addi 1
 235E 80930000          sts _text_ptr,R24
 2362 03C0              xjmp L574
 2364           L573:
 2364                   .dbline 1042
 2364           ;     else text_ptr=0;
 2364 2224              clr R2
 2366 20920000          sts _text_ptr,R2
 236A           L574:
 236A                   .dbline 1043
 236A           ;       Text[10]=Text[text_ptr];
 236A 80E0              ldi R24,<_Text
 236C 90E0              ldi R25,>_Text
 236E E0910000          lds R30,_text_ptr
 2372 FF27              clr R31
 2374 E80F              add R30,R24
 2376 F91F              adc R31,R25
 2378 2080              ldd R2,z+0
 237A 20920A00          sts _Text+10,R2
 237E                   .dbline 1044
 237E           ;       print_texts(343+text_ptr*12,152,0,0xD1,2,0xffff,0x04bb,&Text[10]);
 237E 80E0              ldi R24,<_Text+10
 2380 90E0              ldi R25,>_Text+10
 2382 9B87              std y+11,R25
 2384 8A87              std y+10,R24
 2386 8BEB              ldi R24,1211
 2388 94E0              ldi R25,4
 238A 9987              std y+9,R25
 238C 8887              std y+8,R24
 238E 8FEF              ldi R24,65535
 2390 9FEF              ldi R25,255
 2392 9F83              std y+7,R25
 2394 8E83              std y+6,R24
 2396 82E0              ldi R24,2
 2398 8C83              std y+4,R24
 239A 81ED              ldi R24,209
 239C 8A83              std y+2,R24
 239E 2224              clr R2
 23A0 2882              std y+0,R2
 23A2 28E9              ldi R18,152
 23A4 30E0              ldi R19,0
 23A6 10910000          lds R17,_text_ptr
 23AA 0CE0              ldi R16,12
 23AC 0103              mulsu R16,R17
 23AE 8001              movw R16,R0
 23B0 095A              subi R16,169  ; offset = 343
 23B2 1E4F              sbci R17,254
 23B4 0E940000          xcall _print_texts
 23B8                   .dbline 1045
 23B8           ;    }
 23B8 3EC0              xjmp L569
 23BA           L571:
 23BA                   .dbline 1047
 23BA           ;    else
 23BA           ;    {
 23BA                   .dbline 1048
 23BA           ;     if(text_ptr<8) text_ptr++;
 23BA 80910000          lds R24,_text_ptr
 23BE 8830              cpi R24,8
 23C0 20F4              brsh L577
 23C2           X245:
 23C2                   .dbline 1048
 23C2 8F5F              subi R24,255    ; addi 1
 23C4 80930000          sts _text_ptr,R24
 23C8 03C0              xjmp L578
 23CA           L577:
 23CA                   .dbline 1049
 23CA           ;     else text_ptr=4;
 23CA 84E0              ldi R24,4
 23CC 80930000          sts _text_ptr,R24
 23D0           L578:
 23D0                   .dbline 1050
 23D0           ;       Text[10]=Text[text_ptr];
 23D0 80E0              ldi R24,<_Text
 23D2 90E0              ldi R25,>_Text
 23D4 E0910000          lds R30,_text_ptr
 23D8 FF27              clr R31
 23DA E80F              add R30,R24
 23DC F91F              adc R31,R25
 23DE 2080              ldd R2,z+0
 23E0 20920A00          sts _Text+10,R2
 23E4                   .dbline 1051
 23E4           ;       print_texts(482+(text_ptr-4)*12,152,0,0xD1,2,0xffff,0x04bb,&Text[10]);
 23E4 80E0              ldi R24,<_Text+10
 23E6 90E0              ldi R25,>_Text+10
 23E8 9B87              std y+11,R25
 23EA 8A87              std y+10,R24
 23EC 8BEB              ldi R24,1211
 23EE 94E0              ldi R25,4
 23F0 9987              std y+9,R25
 23F2 8887              std y+8,R24
 23F4 8FEF              ldi R24,65535
 23F6 9FEF              ldi R25,255
 23F8 9F83              std y+7,R25
 23FA 8E83              std y+6,R24
 23FC 82E0              ldi R24,2
 23FE 8C83              std y+4,R24
 2400 81ED              ldi R24,209
 2402 8A83              std y+2,R24
 2404 2224              clr R2
 2406 2882              std y+0,R2
 2408 28E9              ldi R18,152
 240A 30E0              ldi R19,0
 240C 10910000          lds R17,_text_ptr
 2410 0CE0              ldi R16,12
 2412 0103              mulsu R16,R17
 2414 8001              movw R16,R0
 2416 0053              subi R16,48
 2418 1040              sbci R17,0
 241A 0E51              subi R16,30  ; offset = 482
 241C 1E4F              sbci R17,254
 241E 0E940000          xcall _print_texts
 2422                   .dbline 1052
 2422           ;    }
 2422                   .dbline 1053
 2422           ;  }
 2422 09C0              xjmp L569
 2424           L568:
 2424                   .dbline 1054
 2424           ;  else if(KeyID==15)
 2424 80910000          lds R24,_KeyID
 2428 8F30              cpi R24,15
 242A 29F4              brne L581
 242C           X246:
 242C                   .dbline 1055
 242C           ;  {
 242C                   .dbline 1056
 242C           ;    DisWelcome();
 242C 0E945302          xcall _DisWelcome
 2430                   .dbline 1057
 2430           ;    DisPage=WELCOMEPAGE;
 2430 2224              clr R2
 2432 20920000          sts _DisPage,R2
 2436                   .dbline 1058
 2436           ;  }
 2436           L581:
 2436           L569:
 2436                   .dbline -2
 2436           L559:
 2436                   .dbline 0 ; func end
 2436 2C96              adiw R28,12
 2438 0895              ret
 243A                   .dbend
 243A                   .dbfunc e PasswordKeyDown _PasswordKeyDown fV
                        .even
 243A           _PasswordKeyDown::
 243A 0E940000          xcall push_xgset300C
 243E 2C97              sbiw R28,12
 2440                   .dbline -1
 2440                   .dbline 1061
 2440           ; }
 2440           ; void PasswordKeyDown(void)
 2440           ; {
 2440                   .dbline 1062
 2440           ;   if(DisPage!=PASSWORDPAGE) return;
 2440 80910000          lds R24,_DisPage
 2444 8930              cpi R24,9
 2446 09F0              breq L584
 2448           X250:
 2448                   .dbline 1062
 2448 38C2              xjmp L583
 244A           L584:
 244A                   .dbline 1063
 244A           ;   KeyID=GetKeyID(Time_Key,13); 
 244A 2DE0              ldi R18,13
 244C 00E0              ldi R16,<_Time_Key
 244E 10E0              ldi R17,>_Time_Key
 2450 0E949F03          xcall _GetKeyID
 2454 00930000          sts _KeyID,R16
 2458                   .dbline 1064
 2458           ;   if((KeyID<10)&&(text_ptr<6))
 2458 0A30              cpi R16,10
 245A 08F0              brlo X270
 245C 75C0              xjmp L586
 245E           X270:
 245E           X251:
 245E 80910000          lds R24,_text_ptr
 2462 8630              cpi R24,6
 2464 08F0              brlo X271
 2466 70C0              xjmp L586
 2468           X271:
 2468           X252:
 2468                   .dbline 1065
 2468           ;   {
 2468                   .dbline 1066
 2468           ;     cut_pic(0,27,Time_Key[KeyID].XS-29,Time_Key[KeyID].YS-100,Time_Key[KeyID].XE-29,Time_Key[KeyID].YE-100,Time_Key[KeyID].XS,Time_Key[KeyID].YS);
 2468 202E              mov R2,R16
 246A 3324              clr R3
 246C 220C              lsl R2
 246E 331C              rol R3
 2470 220C              lsl R2
 2472 331C              rol R3
 2474 220C              lsl R2
 2476 331C              rol R3
 2478 2101              movw R4,R2
 247A 80E0              ldi R24,<_Time_Key+2
 247C 90E0              ldi R25,>_Time_Key+2
 247E F101              movw R30,R2
 2480 E80F              add R30,R24
 2482 F91F              adc R31,R25
 2484 2790              elpm R2,Z+
 2486 3690              elpm R3,Z
 2488 3B86              std y+11,R3
 248A 2A86              std y+10,R2
 248C 80E0              ldi R24,<_Time_Key
 248E 90E0              ldi R25,>_Time_Key
 2490 F201              movw R30,R4
 2492 E80F              add R30,R24
 2494 F91F              adc R31,R25
 2496 4791              elpm R20,Z+
 2498 5691              elpm R21,Z
 249A 5987              std y+9,R21
 249C 4887              std y+8,R20
 249E 80E0              ldi R24,<_Time_Key+6
 24A0 90E0              ldi R25,>_Time_Key+6
 24A2 F201              movw R30,R4
 24A4 E80F              add R30,R24
 24A6 F91F              adc R31,R25
 24A8 8791              elpm R24,Z+
 24AA 9691              elpm R25,Z
 24AC 8456              subi R24,100
 24AE 9040              sbci R25,0
 24B0 9F83              std y+7,R25
 24B2 8E83              std y+6,R24
 24B4 80E0              ldi R24,<_Time_Key+4
 24B6 90E0              ldi R25,>_Time_Key+4
 24B8 F201              movw R30,R4
 24BA E80F              add R30,R24
 24BC F91F              adc R31,R25
 24BE 8791              elpm R24,Z+
 24C0 9691              elpm R25,Z
 24C2 4D97              sbiw R24,29
 24C4 9D83              std y+5,R25
 24C6 8C83              std y+4,R24
 24C8 80E0              ldi R24,<_Time_Key+2
 24CA 90E0              ldi R25,>_Time_Key+2
 24CC F201              movw R30,R4
 24CE E80F              add R30,R24
 24D0 F91F              adc R31,R25
 24D2 8791              elpm R24,Z+
 24D4 9691              elpm R25,Z
 24D6 8456              subi R24,100
 24D8 9040              sbci R25,0
 24DA 9B83              std y+3,R25
 24DC 8A83              std y+2,R24
 24DE CA01              movw R24,R20
 24E0 4D97              sbiw R24,29
 24E2 9983              std y+1,R25
 24E4 8883              std y+0,R24
 24E6 2BE1              ldi R18,27
 24E8 0027              clr R16
 24EA 0E940000          xcall _cut_pic
 24EE                   .dbline 1067
 24EE           ;       print_texts(335+text_ptr*12,150,0,0xD1,2,0x04bb,0xffff,&Text[7]);
 24EE 80E0              ldi R24,<_Text+7
 24F0 90E0              ldi R25,>_Text+7
 24F2 9B87              std y+11,R25
 24F4 8A87              std y+10,R24
 24F6 8FEF              ldi R24,65535
 24F8 9FEF              ldi R25,255
 24FA 9987              std y+9,R25
 24FC 8887              std y+8,R24
 24FE 8BEB              ldi R24,1211
 2500 94E0              ldi R25,4
 2502 9F83              std y+7,R25
 2504 8E83              std y+6,R24
 2506 82E0              ldi R24,2
 2508 8C83              std y+4,R24
 250A 81ED              ldi R24,209
 250C 8A83              std y+2,R24
 250E 2224              clr R2
 2510 2882              std y+0,R2
 2512 26E9              ldi R18,150
 2514 30E0              ldi R19,0
 2516 10910000          lds R17,_text_ptr
 251A 0CE0              ldi R16,12
 251C 0103              mulsu R16,R17
 251E 8001              movw R16,R0
 2520 015B              subi R16,177  ; offset = 335
 2522 1E4F              sbci R17,254
 2524 0E940000          xcall _print_texts
 2528                   .dbline 1068
 2528           ;     Text[text_ptr]=KeyID;
 2528 80E0              ldi R24,<_Text
 252A 90E0              ldi R25,>_Text
 252C E0910000          lds R30,_text_ptr
 2530 FF27              clr R31
 2532 E80F              add R30,R24
 2534 F91F              adc R31,R25
 2536 20900000          lds R2,_KeyID
 253A 2082              std z+0,R2
 253C                   .dbline 1069
 253C           ;       text_ptr++;
 253C 80910000          lds R24,_text_ptr
 2540 8F5F              subi R24,255    ; addi 1
 2542 80930000          sts _text_ptr,R24
 2546                   .dbline 1070
 2546           ;   }
 2546 B9C1              xjmp L587
 2548           L586:
 2548                   .dbline 1071
 2548           ;   else if((KeyID==10)&&(text_ptr>0))
 2548 80910000          lds R24,_KeyID
 254C 8A30              cpi R24,10
 254E 09F0              breq X272
 2550 74C0              xjmp L593
 2552           X272:
 2552           X253:
 2552 80E0              ldi R24,0
 2554 20900000          lds R2,_text_ptr
 2558 8215              cp R24,R2
 255A 08F0              brlo X273
 255C 6EC0              xjmp L593
 255E           X273:
 255E           X254:
 255E                   .dbline 1072
 255E           ;   {
 255E                   .dbline 1073
 255E           ;     cut_pic(0,27,Time_Key[KeyID].XS-29,Time_Key[KeyID].YS-100,Time_Key[KeyID].XE-29,Time_Key[KeyID].YE-100,Time_Key[KeyID].XS,Time_Key[KeyID].YS);
 255E A0900000          lds R10,_KeyID
 2562 BB24              clr R11
 2564 AA0C              lsl R10
 2566 BB1C              rol R11
 2568 AA0C              lsl R10
 256A BB1C              rol R11
 256C AA0C              lsl R10
 256E BB1C              rol R11
 2570 80E0              ldi R24,<_Time_Key+2
 2572 90E0              ldi R25,>_Time_Key+2
 2574 F501              movw R30,R10
 2576 E80F              add R30,R24
 2578 F91F              adc R31,R25
 257A 2790              elpm R2,Z+
 257C 3690              elpm R3,Z
 257E 3B86              std y+11,R3
 2580 2A86              std y+10,R2
 2582 80E0              ldi R24,<_Time_Key
 2584 90E0              ldi R25,>_Time_Key
 2586 F501              movw R30,R10
 2588 E80F              add R30,R24
 258A F91F              adc R31,R25
 258C 4791              elpm R20,Z+
 258E 5691              elpm R21,Z
 2590 5987              std y+9,R21
 2592 4887              std y+8,R20
 2594 80E0              ldi R24,<_Time_Key+6
 2596 90E0              ldi R25,>_Time_Key+6
 2598 F501              movw R30,R10
 259A E80F              add R30,R24
 259C F91F              adc R31,R25
 259E 8791              elpm R24,Z+
 25A0 9691              elpm R25,Z
 25A2 8456              subi R24,100
 25A4 9040              sbci R25,0
 25A6 9F83              std y+7,R25
 25A8 8E83              std y+6,R24
 25AA 80E0              ldi R24,<_Time_Key+4
 25AC 90E0              ldi R25,>_Time_Key+4
 25AE F501              movw R30,R10
 25B0 E80F              add R30,R24
 25B2 F91F              adc R31,R25
 25B4 8791              elpm R24,Z+
 25B6 9691              elpm R25,Z
 25B8 4D97              sbiw R24,29
 25BA 9D83              std y+5,R25
 25BC 8C83              std y+4,R24
 25BE 80E0              ldi R24,<_Time_Key+2
 25C0 90E0              ldi R25,>_Time_Key+2
 25C2 F501              movw R30,R10
 25C4 E80F              add R30,R24
 25C6 F91F              adc R31,R25
 25C8 8791              elpm R24,Z+
 25CA 9691              elpm R25,Z
 25CC 8456              subi R24,100
 25CE 9040              sbci R25,0
 25D0 9B83              std y+3,R25
 25D2 8A83              std y+2,R24
 25D4 CA01              movw R24,R20
 25D6 4D97              sbiw R24,29
 25D8 9983              std y+1,R25
 25DA 8883              std y+0,R24
 25DC 2BE1              ldi R18,27
 25DE 0027              clr R16
 25E0 0E940000          xcall _cut_pic
 25E4                   .dbline 1074
 25E4           ;     text_ptr--;
 25E4 80910000          lds R24,_text_ptr
 25E8 8150              subi R24,1
 25EA 80930000          sts _text_ptr,R24
 25EE                   .dbline 1075
 25EE           ;       Text[text_ptr]=0;
 25EE 80E0              ldi R24,<_Text
 25F0 90E0              ldi R25,>_Text
 25F2 E0910000          lds R30,_text_ptr
 25F6 FF27              clr R31
 25F8 E80F              add R30,R24
 25FA F91F              adc R31,R25
 25FC 2224              clr R2
 25FE 2082              std z+0,R2
 2600                   .dbline 1076
 2600           ;       print_texts(335+text_ptr*12,150,0,0xD1,2,0x04bb,0xffff,&Text[9]);
 2600 80E0              ldi R24,<_Text+9
 2602 90E0              ldi R25,>_Text+9
 2604 9B87              std y+11,R25
 2606 8A87              std y+10,R24
 2608 8FEF              ldi R24,65535
 260A 9FEF              ldi R25,255
 260C 9987              std y+9,R25
 260E 8887              std y+8,R24
 2610 8BEB              ldi R24,1211
 2612 94E0              ldi R25,4
 2614 9F83              std y+7,R25
 2616 8E83              std y+6,R24
 2618 82E0              ldi R24,2
 261A 8C83              std y+4,R24
 261C 81ED              ldi R24,209
 261E 8A83              std y+2,R24
 2620 2882              std y+0,R2
 2622 26E9              ldi R18,150
 2624 30E0              ldi R19,0
 2626 10910000          lds R17,_text_ptr
 262A 0CE0              ldi R16,12
 262C 0103              mulsu R16,R17
 262E 8001              movw R16,R0
 2630 015B              subi R16,177  ; offset = 335
 2632 1E4F              sbci R17,254
 2634 0E940000          xcall _print_texts
 2638                   .dbline 1077
 2638           ;   }
 2638 40C1              xjmp L594
 263A           L593:
 263A                   .dbline 1078
 263A           ;   else if((KeyID==11)&&(text_ptr==6))
 263A 80910000          lds R24,_KeyID
 263E 8B30              cpi R24,11
 2640 09F0              breq X274
 2642 F4C0              xjmp L600
 2644           X274:
 2644           X255:
 2644 80910000          lds R24,_text_ptr
 2648 8630              cpi R24,6
 264A 09F0              breq X275
 264C EFC0              xjmp L600
 264E           X275:
 264E           X256:
 264E                   .dbline 1079
 264E           ;   {
 264E                   .dbline 1080
 264E           ;     cut_pic(0,27,Time_Key[KeyID].XS-29,Time_Key[KeyID].YS-100,Time_Key[KeyID].XE-29,Time_Key[KeyID].YE-100,Time_Key[KeyID].XS,Time_Key[KeyID].YS);
 264E A0900000          lds R10,_KeyID
 2652 BB24              clr R11
 2654 AA0C              lsl R10
 2656 BB1C              rol R11
 2658 AA0C              lsl R10
 265A BB1C              rol R11
 265C AA0C              lsl R10
 265E BB1C              rol R11
 2660 80E0              ldi R24,<_Time_Key+2
 2662 90E0              ldi R25,>_Time_Key+2
 2664 F501              movw R30,R10
 2666 E80F              add R30,R24
 2668 F91F              adc R31,R25
 266A 2790              elpm R2,Z+
 266C 3690              elpm R3,Z
 266E 3B86              std y+11,R3
 2670 2A86              std y+10,R2
 2672 80E0              ldi R24,<_Time_Key
 2674 90E0              ldi R25,>_Time_Key
 2676 F501              movw R30,R10
 2678 E80F              add R30,R24
 267A F91F              adc R31,R25
 267C 4791              elpm R20,Z+
 267E 5691              elpm R21,Z
 2680 5987              std y+9,R21
 2682 4887              std y+8,R20
 2684 80E0              ldi R24,<_Time_Key+6
 2686 90E0              ldi R25,>_Time_Key+6
 2688 F501              movw R30,R10
 268A E80F              add R30,R24
 268C F91F              adc R31,R25
 268E 8791              elpm R24,Z+
 2690 9691              elpm R25,Z
 2692 8456              subi R24,100
 2694 9040              sbci R25,0
 2696 9F83              std y+7,R25
 2698 8E83              std y+6,R24
 269A 80E0              ldi R24,<_Time_Key+4
 269C 90E0              ldi R25,>_Time_Key+4
 269E F501              movw R30,R10
 26A0 E80F              add R30,R24
 26A2 F91F              adc R31,R25
 26A4 8791              elpm R24,Z+
 26A6 9691              elpm R25,Z
 26A8 4D97              sbiw R24,29
 26AA 9D83              std y+5,R25
 26AC 8C83              std y+4,R24
 26AE 80E0              ldi R24,<_Time_Key+2
 26B0 90E0              ldi R25,>_Time_Key+2
 26B2 F501              movw R30,R10
 26B4 E80F              add R30,R24
 26B6 F91F              adc R31,R25
 26B8 8791              elpm R24,Z+
 26BA 9691              elpm R25,Z
 26BC 8456              subi R24,100
 26BE 9040              sbci R25,0
 26C0 9B83              std y+3,R25
 26C2 8A83              std y+2,R24
 26C4 CA01              movw R24,R20
 26C6 4D97              sbiw R24,29
 26C8 9983              std y+1,R25
 26CA 8883              std y+0,R24
 26CC 2BE1              ldi R18,27
 26CE 0027              clr R16
 26D0 0E940000          xcall _cut_pic
 26D4                   .dbline 1081
 26D4           ;       if((Text[0]==PasswordTab[0])&&(Text[1]==PasswordTab[1])&&(Text[2]==PasswordTab[2])&&(Text[3]==PasswordTab[3])&&(Text[4]==PasswordTab[4])&&(Text[5]==PasswordTab[5]))
 26D4 20900000          lds R2,_PasswordTab
 26D8 30900000          lds R3,_Text
 26DC 3214              cp R3,R2
 26DE 11F5              brne L606
 26E0           X257:
 26E0 20900100          lds R2,_PasswordTab+1
 26E4 30900100          lds R3,_Text+1
 26E8 3214              cp R3,R2
 26EA E1F4              brne L606
 26EC           X258:
 26EC 20900200          lds R2,_PasswordTab+2
 26F0 30900200          lds R3,_Text+2
 26F4 3214              cp R3,R2
 26F6 B1F4              brne L606
 26F8           X259:
 26F8 20900300          lds R2,_PasswordTab+3
 26FC 30900300          lds R3,_Text+3
 2700 3214              cp R3,R2
 2702 81F4              brne L606
 2704           X260:
 2704 20900400          lds R2,_PasswordTab+4
 2708 30900400          lds R3,_Text+4
 270C 3214              cp R3,R2
 270E 51F4              brne L606
 2710           X261:
 2710 20900500          lds R2,_PasswordTab+5
 2714 30900500          lds R3,_Text+5
 2718 3214              cp R3,R2
 271A 21F4              brne L606
 271C           X262:
 271C                   .dbline 1082
 271C           ;       {
 271C                   .dbline 1083
 271C           ;         text_ptr=8;
 271C 88E0              ldi R24,8
 271E 80930000          sts _text_ptr,R24
 2722                   .dbline 1084
 2722           ;       }
 2722 CBC0              xjmp L601
 2724           L606:
 2724                   .dbline 1085
 2724           ;       else if((Text[0]==1)&&(Text[1]==1)&&(Text[2]==1)&&(Text[3]==0)&&(Text[4]==0)&&(Text[5]==1))
 2724 80910000          lds R24,_Text
 2728 8130              cpi R24,1
 272A 09F0              breq X276
 272C 53C0              xjmp L618
 272E           X276:
 272E           X263:
 272E 80910100          lds R24,_Text+1
 2732 8130              cpi R24,1
 2734 09F0              breq X277
 2736 4EC0              xjmp L618
 2738           X277:
 2738           X264:
 2738 80910200          lds R24,_Text+2
 273C 8130              cpi R24,1
 273E 09F0              breq X278
 2740 49C0              xjmp L618
 2742           X278:
 2742           X265:
 2742 20900300          lds R2,_Text+3
 2746 2220              tst R2
 2748 09F0              breq X279
 274A 44C0              xjmp L618
 274C           X279:
 274C           X266:
 274C 20900400          lds R2,_Text+4
 2750 2220              tst R2
 2752 09F0              breq X280
 2754 3FC0              xjmp L618
 2756           X280:
 2756           X267:
 2756 80910500          lds R24,_Text+5
 275A 8130              cpi R24,1
 275C D9F5              brne L618
 275E           X268:
 275E                   .dbline 1086
 275E           ;       {
 275E                   .dbline 1087
 275E           ;         PasswordTab[0]=1;
 275E 81E0              ldi R24,1
 2760 80930000          sts _PasswordTab,R24
 2764                   .dbline 1088
 2764           ;         PasswordTab[1]=2;
 2764 82E0              ldi R24,2
 2766 80930100          sts _PasswordTab+1,R24
 276A                   .dbline 1089
 276A           ;         PasswordTab[2]=0;
 276A 2224              clr R2
 276C 20920200          sts _PasswordTab+2,R2
 2770                   .dbline 1090
 2770           ;         PasswordTab[3]=1;
 2770 81E0              ldi R24,1
 2772 80930300          sts _PasswordTab+3,R24
 2776                   .dbline 1091
 2776           ;         PasswordTab[4]=0;
 2776 20920400          sts _PasswordTab+4,R2
 277A                   .dbline 1092
 277A           ;         PasswordTab[5]=1;
 277A 80930500          sts _PasswordTab+5,R24
 277E                   .dbline 1093
 277E           ;         text_ptr=0;
 277E 20920000          sts _text_ptr,R2
 2782                   .dbline 1094
 2782           ;         Text[0]=' ';
 2782 80E2              ldi R24,32
 2784 80930000          sts _Text,R24
 2788                   .dbline 1095
 2788           ;         Text[1]=' ';
 2788 80930100          sts _Text+1,R24
 278C                   .dbline 1096
 278C           ;         Text[2]=' ';
 278C 80930200          sts _Text+2,R24
 2790                   .dbline 1097
 2790           ;         Text[3]=' ';
 2790 80930300          sts _Text+3,R24
 2794                   .dbline 1098
 2794           ;         Text[4]=' ';
 2794 80930400          sts _Text+4,R24
 2798                   .dbline 1099
 2798           ;         Text[5]=' ';
 2798 80930500          sts _Text+5,R24
 279C                   .dbline 1100
 279C           ;         print_texts(335+text_ptr*12,150,0,0xD1,2,0x04bb,0xffff,Text);
 279C 80E0              ldi R24,<_Text
 279E 90E0              ldi R25,>_Text
 27A0 9B87              std y+11,R25
 27A2 8A87              std y+10,R24
 27A4 8FEF              ldi R24,65535
 27A6 9FEF              ldi R25,255
 27A8 9987              std y+9,R25
 27AA 8887              std y+8,R24
 27AC 8BEB              ldi R24,1211
 27AE 94E0              ldi R25,4
 27B0 9F83              std y+7,R25
 27B2 8E83              std y+6,R24
 27B4 82E0              ldi R24,2
 27B6 8C83              std y+4,R24
 27B8 81ED              ldi R24,209
 27BA 8A83              std y+2,R24
 27BC 2882              std y+0,R2
 27BE 26E9              ldi R18,150
 27C0 30E0              ldi R19,0
 27C2 122D              mov R17,R2
 27C4 0CE0              ldi R16,12
 27C6 0103              mulsu R16,R17
 27C8 8001              movw R16,R0
 27CA 015B              subi R16,177  ; offset = 335
 27CC 1E4F              sbci R17,254
 27CE 0E940000          xcall _print_texts
 27D2                   .dbline 1101
 27D2           ;       }
 27D2 73C0              xjmp L601
 27D4           L618:
 27D4                   .dbline 1103
 27D4           ;       else
 27D4           ;     {
 27D4                   .dbline 1104
 27D4           ;         text_ptr=0;
 27D4 2224              clr R2
 27D6 20920000          sts _text_ptr,R2
 27DA                   .dbline 1105
 27DA           ;         Text[0]=' ';
 27DA 80E2              ldi R24,32
 27DC 80930000          sts _Text,R24
 27E0                   .dbline 1106
 27E0           ;         Text[1]=' ';
 27E0 80930100          sts _Text+1,R24
 27E4                   .dbline 1107
 27E4           ;         Text[2]=' ';
 27E4 80930200          sts _Text+2,R24
 27E8                   .dbline 1108
 27E8           ;         Text[3]=' ';
 27E8 80930300          sts _Text+3,R24
 27EC                   .dbline 1109
 27EC           ;         Text[4]=' ';
 27EC 80930400          sts _Text+4,R24
 27F0                   .dbline 1110
 27F0           ;         Text[5]=' ';
 27F0 80930500          sts _Text+5,R24
 27F4                   .dbline 1111
 27F4           ;         print_texts(335+text_ptr*12,150,0,0xD1,2,0x04bb,0xffff,Text);
 27F4 80E0              ldi R24,<_Text
 27F6 90E0              ldi R25,>_Text
 27F8 9B87              std y+11,R25
 27FA 8A87              std y+10,R24
 27FC 8FEF              ldi R24,65535
 27FE 9FEF              ldi R25,255
 2800 9987              std y+9,R25
 2802 8887              std y+8,R24
 2804 8BEB              ldi R24,1211
 2806 94E0              ldi R25,4
 2808 9F83              std y+7,R25
 280A 8E83              std y+6,R24
 280C 82E0              ldi R24,2
 280E 8C83              std y+4,R24
 2810 81ED              ldi R24,209
 2812 8A83              std y+2,R24
 2814 2882              std y+0,R2
 2816 26E9              ldi R18,150
 2818 30E0              ldi R19,0
 281A 122D              mov R17,R2
 281C 0CE0              ldi R16,12
 281E 0103              mulsu R16,R17
 2820 8001              movw R16,R0
 2822 015B              subi R16,177  ; offset = 335
 2824 1E4F              sbci R17,254
 2826 0E940000          xcall _print_texts
 282A                   .dbline 1112
 282A           ;       }
 282A                   .dbline 1113
 282A           ;   }
 282A 47C0              xjmp L601
 282C           L600:
 282C                   .dbline 1114
 282C           ;   else if(KeyID==12)
 282C 80910000          lds R24,_KeyID
 2830 8C30              cpi R24,12
 2832 09F0              breq X281
 2834 42C0              xjmp L640
 2836           X281:
 2836           X269:
 2836                   .dbline 1115
 2836           ;   {
 2836                   .dbline 1116
 2836           ;     cut_pic(0,27,Time_Key[KeyID].XS-29,Time_Key[KeyID].YS-100,Time_Key[KeyID].XE-29,Time_Key[KeyID].YE-100,Time_Key[KeyID].XS,Time_Key[KeyID].YS); 
 2836 A82E              mov R10,R24
 2838 BB24              clr R11
 283A AA0C              lsl R10
 283C BB1C              rol R11
 283E AA0C              lsl R10
 2840 BB1C              rol R11
 2842 AA0C              lsl R10
 2844 BB1C              rol R11
 2846 80E0              ldi R24,<_Time_Key+2
 2848 90E0              ldi R25,>_Time_Key+2
 284A F501              movw R30,R10
 284C E80F              add R30,R24
 284E F91F              adc R31,R25
 2850 2790              elpm R2,Z+
 2852 3690              elpm R3,Z
 2854 3B86              std y+11,R3
 2856 2A86              std y+10,R2
 2858 80E0              ldi R24,<_Time_Key
 285A 90E0              ldi R25,>_Time_Key
 285C F501              movw R30,R10
 285E E80F              add R30,R24
 2860 F91F              adc R31,R25
 2862 4791              elpm R20,Z+
 2864 5691              elpm R21,Z
 2866 5987              std y+9,R21
 2868 4887              std y+8,R20
 286A 80E0              ldi R24,<_Time_Key+6
 286C 90E0              ldi R25,>_Time_Key+6
 286E F501              movw R30,R10
 2870 E80F              add R30,R24
 2872 F91F              adc R31,R25
 2874 8791              elpm R24,Z+
 2876 9691              elpm R25,Z
 2878 8456              subi R24,100
 287A 9040              sbci R25,0
 287C 9F83              std y+7,R25
 287E 8E83              std y+6,R24
 2880 80E0              ldi R24,<_Time_Key+4
 2882 90E0              ldi R25,>_Time_Key+4
 2884 F501              movw R30,R10
 2886 E80F              add R30,R24
 2888 F91F              adc R31,R25
 288A 8791              elpm R24,Z+
 288C 9691              elpm R25,Z
 288E 4D97              sbiw R24,29
 2890 9D83              std y+5,R25
 2892 8C83              std y+4,R24
 2894 80E0              ldi R24,<_Time_Key+2
 2896 90E0              ldi R25,>_Time_Key+2
 2898 F501              movw R30,R10
 289A E80F              add R30,R24
 289C F91F              adc R31,R25
 289E 8791              elpm R24,Z+
 28A0 9691              elpm R25,Z
 28A2 8456              subi R24,100
 28A4 9040              sbci R25,0
 28A6 9B83              std y+3,R25
 28A8 8A83              std y+2,R24
 28AA CA01              movw R24,R20
 28AC 4D97              sbiw R24,29
 28AE 9983              std y+1,R25
 28B0 8883              std y+0,R24
 28B2 2BE1              ldi R18,27
 28B4 0027              clr R16
 28B6 0E940000          xcall _cut_pic
 28BA                   .dbline 1117
 28BA           ;   }
 28BA           L640:
 28BA           L601:
 28BA           L594:
 28BA           L587:
 28BA                   .dbline -2
 28BA           L583:
 28BA                   .dbline 0 ; func end
 28BA 2C96              adiw R28,12
 28BC 0C940000          xjmp pop_xgset300C
 28C0                   .dbend
 28C0                   .dbfunc e PasswordKeyUp _PasswordKeyUp fV
                        .even
 28C0           _PasswordKeyUp::
 28C0 2C97              sbiw R28,12
 28C2                   .dbline -1
 28C2                   .dbline 1120
 28C2           ; } 
 28C2           ; void PasswordKeyUp(void)
 28C2           ; {
 28C2                   .dbline 1121
 28C2           ;   if(DisPage!=PASSWORDPAGE) return;
 28C2 80910000          lds R24,_DisPage
 28C6 8930              cpi R24,9
 28C8 09F0              breq L647
 28CA           X282:
 28CA                   .dbline 1121
 28CA 3AC0              xjmp L646
 28CC           L647:
 28CC                   .dbline 1122
 28CC           ;   if(KeyID<12)
 28CC 80910000          lds R24,_KeyID
 28D0 8C30              cpi R24,12
 28D2 D0F4              brsh L649
 28D4           X283:
 28D4                   .dbline 1123
 28D4           ;   {
 28D4                   .dbline 1124
 28D4           ;     cut_pic(0,27,0,90,269,325,300,190);
 28D4 8EEB              ldi R24,190
 28D6 90E0              ldi R25,0
 28D8 9B87              std y+11,R25
 28DA 8A87              std y+10,R24
 28DC 8CE2              ldi R24,300
 28DE 91E0              ldi R25,1
 28E0 9987              std y+9,R25
 28E2 8887              std y+8,R24
 28E4 85E4              ldi R24,69
 28E6 9F83              std y+7,R25
 28E8 8E83              std y+6,R24
 28EA 8DE0              ldi R24,13
 28EC 9D83              std y+5,R25
 28EE 8C83              std y+4,R24
 28F0 8AE5              ldi R24,90
 28F2 90E0              ldi R25,0
 28F4 9B83              std y+3,R25
 28F6 8A83              std y+2,R24
 28F8 2224              clr R2
 28FA 3324              clr R3
 28FC 3982              std y+1,R3
 28FE 2882              std y+0,R2
 2900 2BE1              ldi R18,27
 2902 0027              clr R16
 2904 0E940000          xcall _cut_pic
 2908                   .dbline 1125
 2908           ;   }
 2908           L649:
 2908                   .dbline 1126
 2908           ;   if((KeyID==11)&&(text_ptr==8))
 2908 80910000          lds R24,_KeyID
 290C 8B30              cpi R24,11
 290E 79F4              brne L651
 2910           X284:
 2910 80910000          lds R24,_text_ptr
 2914 8830              cpi R24,8
 2916 59F4              brne L651
 2918           X285:
 2918                   .dbline 1127
 2918           ;   {
 2918                   .dbline 1128
 2918           ;     clock_off();
 2918 0E940000          xcall _clock_off
 291C                   .dbline 1129
 291C           ;       dis_pic(19);
 291C 03E1              ldi R16,19
 291E 0E940000          xcall _dis_pic
 2922                   .dbline 1130
 2922           ;       DisVer();
 2922 0E940000          xcall _DisVer
 2926                   .dbline 1131
 2926           ;       DisPage=SYSTEMPAGE;
 2926 8AE0              ldi R24,10
 2928 80930000          sts _DisPage,R24
 292C                   .dbline 1132
 292C           ;   }
 292C 09C0              xjmp L652
 292E           L651:
 292E                   .dbline 1133
 292E           ;   else if(KeyID==12)
 292E 80910000          lds R24,_KeyID
 2932 8C30              cpi R24,12
 2934 29F4              brne L653
 2936           X286:
 2936                   .dbline 1134
 2936           ;   {
 2936                   .dbline 1135
 2936           ;     DisWelcome();
 2936 0E945302          xcall _DisWelcome
 293A                   .dbline 1136
 293A           ;     DisPage=WELCOMEPAGE;
 293A 2224              clr R2
 293C 20920000          sts _DisPage,R2
 2940                   .dbline 1137
 2940           ;   } 
 2940           L653:
 2940           L652:
 2940                   .dbline -2
 2940           L646:
 2940                   .dbline 0 ; func end
 2940 2C96              adiw R28,12
 2942 0895              ret
 2944                   .dbend
 2944                   .dbfunc e SystemKeyDown _SystemKeyDown fV
 2944           ;              i -> R20
                        .even
 2944           _SystemKeyDown::
 2944 0E940000          xcall push_xgset30FC
 2948 2C97              sbiw R28,12
 294A                   .dbline -1
 294A                   .dbline 1140
 294A           ; }   
 294A           ; void SystemKeyDown(void)
 294A           ; {
 294A                   .dbline 1142
 294A           ;  unsigned char i;
 294A           ;  if(DisPage!=SYSTEMPAGE) return;
 294A 80910000          lds R24,_DisPage
 294E 8A30              cpi R24,10
 2950 09F0              breq L656
 2952           X287:
 2952                   .dbline 1142
 2952 14C4              xjmp L655
 2954           L656:
 2954                   .dbline 1143
 2954           ;  KeyID=GetKeyID(System_Key,10);
 2954 2AE0              ldi R18,10
 2956 00E0              ldi R16,<_System_Key
 2958 10E0              ldi R17,>_System_Key
 295A 0E949F03          xcall _GetKeyID
 295E 00930000          sts _KeyID,R16
 2962                   .dbline 1144
 2962           ;  if(KeyID==0)
 2962 202E              mov R2,R16
 2964 0023              tst R16
 2966 09F0              breq X298
 2968 7DC0              xjmp L658
 296A           X298:
 296A           X288:
 296A                   .dbline 1145
 296A           ;  {
 296A                   .dbline 1146
 296A           ;    cut_pic(0,20,System_Key[KeyID].XS,System_Key[KeyID].YS,System_Key[KeyID].XE,System_Key[KeyID].YE,System_Key[KeyID].XS,System_Key[KeyID].YS);
 296A 3324              clr R3
 296C 220C              lsl R2
 296E 331C              rol R3
 2970 220C              lsl R2
 2972 331C              rol R3
 2974 220C              lsl R2
 2976 331C              rol R3
 2978 2101              movw R4,R2
 297A 80E0              ldi R24,<_System_Key+2
 297C 90E0              ldi R25,>_System_Key+2
 297E F101              movw R30,R2
 2980 E80F              add R30,R24
 2982 F91F              adc R31,R25
 2984 2790              elpm R2,Z+
 2986 3690              elpm R3,Z
 2988 3B86              std y+11,R3
 298A 2A86              std y+10,R2
 298C 80E0              ldi R24,<_System_Key
 298E 90E0              ldi R25,>_System_Key
 2990 F201              movw R30,R4
 2992 E80F              add R30,R24
 2994 F91F              adc R31,R25
 2996 A790              elpm R10,Z+
 2998 B690              elpm R11,Z
 299A B986              std y+9,R11
 299C A886              std y+8,R10
 299E 80E0              ldi R24,<_System_Key+6
 29A0 90E0              ldi R25,>_System_Key+6
 29A2 F201              movw R30,R4
 29A4 E80F              add R30,R24
 29A6 F91F              adc R31,R25
 29A8 2790              elpm R2,Z+
 29AA 3690              elpm R3,Z
 29AC 3F82              std y+7,R3
 29AE 2E82              std y+6,R2
 29B0 80E0              ldi R24,<_System_Key+4
 29B2 90E0              ldi R25,>_System_Key+4
 29B4 F201              movw R30,R4
 29B6 E80F              add R30,R24
 29B8 F91F              adc R31,R25
 29BA 2790              elpm R2,Z+
 29BC 3690              elpm R3,Z
 29BE 3D82              std y+5,R3
 29C0 2C82              std y+4,R2
 29C2 80E0              ldi R24,<_System_Key+2
 29C4 90E0              ldi R25,>_System_Key+2
 29C6 F201              movw R30,R4
 29C8 E80F              add R30,R24
 29CA F91F              adc R31,R25
 29CC 2790              elpm R2,Z+
 29CE 3690              elpm R3,Z
 29D0 3B82              std y+3,R3
 29D2 2A82              std y+2,R2
 29D4 B982              std y+1,R11
 29D6 A882              std y+0,R10
 29D8 24E1              ldi R18,20
 29DA 0027              clr R16
 29DC 0E940000          xcall _cut_pic
 29E0                   .dbline 1147
 29E0           ;    cut_pic(0,21,0,0,269,299,300,100);
 29E0 84E6              ldi R24,100
 29E2 90E0              ldi R25,0
 29E4 9B87              std y+11,R25
 29E6 8A87              std y+10,R24
 29E8 8CE2              ldi R24,300
 29EA 91E0              ldi R25,1
 29EC 9987              std y+9,R25
 29EE 8887              std y+8,R24
 29F0 8BE2              ldi R24,43
 29F2 9F83              std y+7,R25
 29F4 8E83              std y+6,R24
 29F6 8DE0              ldi R24,13
 29F8 9D83              std y+5,R25
 29FA 8C83              std y+4,R24
 29FC 2224              clr R2
 29FE 3324              clr R3
 2A00 3B82              std y+3,R3
 2A02 2A82              std y+2,R2
 2A04 3982              std y+1,R3
 2A06 2882              std y+0,R2
 2A08 25E1              ldi R18,21
 2A0A 0027              clr R16
 2A0C 0E940000          xcall _cut_pic
 2A10                   .dbline 1153
 2A10           ; //   EEPROMReadBytes(CounterAddr+0,&Total_counter,4);
 2A10           ; //   LtoA(Total_counter,Text);
 2A10           ; //   print_texts(340,180,0,0xD1,2,0x04bb,0xffff,Text);
 2A10           ; 
 2A10           ;       //EEPROMReadBytes(CounterAddr+hand[Intensity[8]]*4,&Total_counter,4);
 2A10           ;     LtoA(Total_counter,Text);
 2A10 80E0              ldi R24,<_Text
 2A12 90E0              ldi R25,>_Text
 2A14 9983              std y+1,R25
 2A16 8883              std y+0,R24
 2A18 20910200          lds R18,_Total_counter+2
 2A1C 30910300          lds R19,_Total_counter+2+1
 2A20 00910000          lds R16,_Total_counter
 2A24 10910100          lds R17,_Total_counter+1
 2A28 0E949F00          xcall _LtoA
 2A2C                   .dbline 1154
 2A2C           ;     print_texts(340,260,0,0xD1,2,0x04bb,0xffff,Text);
 2A2C 80E0              ldi R24,<_Text
 2A2E 90E0              ldi R25,>_Text
 2A30 9B87              std y+11,R25
 2A32 8A87              std y+10,R24
 2A34 8FEF              ldi R24,65535
 2A36 9FEF              ldi R25,255
 2A38 9987              std y+9,R25
 2A3A 8887              std y+8,R24
 2A3C 8BEB              ldi R24,1211
 2A3E 94E0              ldi R25,4
 2A40 9F83              std y+7,R25
 2A42 8E83              std y+6,R24
 2A44 82E0              ldi R24,2
 2A46 8C83              std y+4,R24
 2A48 81ED              ldi R24,209
 2A4A 8A83              std y+2,R24
 2A4C 2224              clr R2
 2A4E 2882              std y+0,R2
 2A50 24E0              ldi R18,260
 2A52 31E0              ldi R19,1
 2A54 04E5              ldi R16,340
 2A56 11E0              ldi R17,1
 2A58 0E940000          xcall _print_texts
 2A5C                   .dbline 1159
 2A5C           ;       
 2A5C           ; //   EEPROMReadBytes(CounterAddr+8,&Total_counter,4);
 2A5C           ; //   LtoA(Total_counter,Text);
 2A5C           ; //   print_texts(340,340,0,0xD1,2,0x04bb,0xffff,Text);
 2A5C           ;    DisPage=WORKTIMEPAGE;
 2A5C 8BE0              ldi R24,11
 2A5E 80930000          sts _DisPage,R24
 2A62                   .dbline 1160
 2A62           ;  }
 2A62 8CC3              xjmp L659
 2A64           L658:
 2A64                   .dbline 1161
 2A64           ;  else if(KeyID==1)
 2A64 80910000          lds R24,_KeyID
 2A68 8130              cpi R24,1
 2A6A 09F0              breq X299
 2A6C B2C0              xjmp L664
 2A6E           X299:
 2A6E           X289:
 2A6E                   .dbline 1162
 2A6E           ;  {
 2A6E                   .dbline 1163
 2A6E           ;    cut_pic(0,20,System_Key[KeyID].XS,System_Key[KeyID].YS,System_Key[KeyID].XE,System_Key[KeyID].YE,System_Key[KeyID].XS,System_Key[KeyID].YS);
 2A6E C82E              mov R12,R24
 2A70 DD24              clr R13
 2A72 CC0C              lsl R12
 2A74 DD1C              rol R13
 2A76 CC0C              lsl R12
 2A78 DD1C              rol R13
 2A7A CC0C              lsl R12
 2A7C DD1C              rol R13
 2A7E 80E0              ldi R24,<_System_Key+2
 2A80 90E0              ldi R25,>_System_Key+2
 2A82 F601              movw R30,R12
 2A84 E80F              add R30,R24
 2A86 F91F              adc R31,R25
 2A88 2790              elpm R2,Z+
 2A8A 3690              elpm R3,Z
 2A8C 3B86              std y+11,R3
 2A8E 2A86              std y+10,R2
 2A90 80E0              ldi R24,<_System_Key
 2A92 90E0              ldi R25,>_System_Key
 2A94 F601              movw R30,R12
 2A96 E80F              add R30,R24
 2A98 F91F              adc R31,R25
 2A9A A790              elpm R10,Z+
 2A9C B690              elpm R11,Z
 2A9E B986              std y+9,R11
 2AA0 A886              std y+8,R10
 2AA2 80E0              ldi R24,<_System_Key+6
 2AA4 90E0              ldi R25,>_System_Key+6
 2AA6 F601              movw R30,R12
 2AA8 E80F              add R30,R24
 2AAA F91F              adc R31,R25
 2AAC 2790              elpm R2,Z+
 2AAE 3690              elpm R3,Z
 2AB0 3F82              std y+7,R3
 2AB2 2E82              std y+6,R2
 2AB4 80E0              ldi R24,<_System_Key+4
 2AB6 90E0              ldi R25,>_System_Key+4
 2AB8 F601              movw R30,R12
 2ABA E80F              add R30,R24
 2ABC F91F              adc R31,R25
 2ABE 2790              elpm R2,Z+
 2AC0 3690              elpm R3,Z
 2AC2 3D82              std y+5,R3
 2AC4 2C82              std y+4,R2
 2AC6 80E0              ldi R24,<_System_Key+2
 2AC8 90E0              ldi R25,>_System_Key+2
 2ACA F601              movw R30,R12
 2ACC E80F              add R30,R24
 2ACE F91F              adc R31,R25
 2AD0 2790              elpm R2,Z+
 2AD2 3690              elpm R3,Z
 2AD4 3B82              std y+3,R3
 2AD6 2A82              std y+2,R2
 2AD8 B982              std y+1,R11
 2ADA A882              std y+0,R10
 2ADC 24E1              ldi R18,20
 2ADE 0027              clr R16
 2AE0 0E940000          xcall _cut_pic
 2AE4                   .dbline 1164
 2AE4           ;    cut_pic(0,22,0,0,399,449,300,80);
 2AE4 80E5              ldi R24,80
 2AE6 90E0              ldi R25,0
 2AE8 9B87              std y+11,R25
 2AEA 8A87              std y+10,R24
 2AEC 8CE2              ldi R24,300
 2AEE 91E0              ldi R25,1
 2AF0 9987              std y+9,R25
 2AF2 8887              std y+8,R24
 2AF4 81EC              ldi R24,193
 2AF6 9F83              std y+7,R25
 2AF8 8E83              std y+6,R24
 2AFA 8FE8              ldi R24,143
 2AFC 9D83              std y+5,R25
 2AFE 8C83              std y+4,R24
 2B00 2224              clr R2
 2B02 3324              clr R3
 2B04 3B82              std y+3,R3
 2B06 2A82              std y+2,R2
 2B08 3982              std y+1,R3
 2B0A 2882              std y+0,R2
 2B0C 26E1              ldi R18,22
 2B0E 0027              clr R16
 2B10 0E940000          xcall _cut_pic
 2B14                   .dbline 1165
 2B14           ;    for(i=0;i<4;i++)
 2B14 4427              clr R20
 2B16 56C0              xjmp L673
 2B18           L670:
 2B18                   .dbline 1166
 2B18           ;    {
 2B18                   .dbline 1167
 2B18           ;     cut_pic(0,22,Option_Key[i].XS+Function_Buf[i]*400-300,Option_Key[i].YS-80,Option_Key[i].XE+Function_Buf[i]*400-300,Option_Key[i].YE-80,Option_Key[i].XS,Option_Key[i].YS);
 2B18 E42E              mov R14,R20
 2B1A FF24              clr R15
 2B1C EE0C              lsl R14
 2B1E FF1C              rol R15
 2B20 EE0C              lsl R14
 2B22 FF1C              rol R15
 2B24 EE0C              lsl R14
 2B26 FF1C              rol R15
 2B28 80E0              ldi R24,<_Option_Key+2
 2B2A 90E0              ldi R25,>_Option_Key+2
 2B2C F701              movw R30,R14
 2B2E E80F              add R30,R24
 2B30 F91F              adc R31,R25
 2B32 2790              elpm R2,Z+
 2B34 3690              elpm R3,Z
 2B36 3B86              std y+11,R3
 2B38 2A86              std y+10,R2
 2B3A 80E0              ldi R24,<_Option_Key
 2B3C 90E0              ldi R25,>_Option_Key
 2B3E F701              movw R30,R14
 2B40 E80F              add R30,R24
 2B42 F91F              adc R31,R25
 2B44 C790              elpm R12,Z+
 2B46 D690              elpm R13,Z
 2B48 D986              std y+9,R13
 2B4A C886              std y+8,R12
 2B4C 80E0              ldi R24,<_Option_Key+6
 2B4E 90E0              ldi R25,>_Option_Key+6
 2B50 F701              movw R30,R14
 2B52 E80F              add R30,R24
 2B54 F91F              adc R31,R25
 2B56 8791              elpm R24,Z+
 2B58 9691              elpm R25,Z
 2B5A 8055              subi R24,80
 2B5C 9040              sbci R25,0
 2B5E 9F83              std y+7,R25
 2B60 8E83              std y+6,R24
 2B62 80E0              ldi R24,<_Function_Buf
 2B64 90E0              ldi R25,>_Function_Buf
 2B66 E42F              mov R30,R20
 2B68 FF27              clr R31
 2B6A E80F              add R30,R24
 2B6C F91F              adc R31,R25
 2B6E 2081              ldd R18,z+0
 2B70 3327              clr R19
 2B72 00E9              ldi R16,400
 2B74 11E0              ldi R17,1
 2B76 0E940000          xcall empy16s
 2B7A 5801              movw R10,R16
 2B7C 80E0              ldi R24,<_Option_Key+4
 2B7E 90E0              ldi R25,>_Option_Key+4
 2B80 F701              movw R30,R14
 2B82 E80F              add R30,R24
 2B84 F91F              adc R31,R25
 2B86 8791              elpm R24,Z+
 2B88 9691              elpm R25,Z
 2B8A 800F              add R24,R16
 2B8C 911F              adc R25,R17
 2B8E 8C52              subi R24,44
 2B90 9140              sbci R25,1
 2B92 9D83              std y+5,R25
 2B94 8C83              std y+4,R24
 2B96 80E0              ldi R24,<_Option_Key+2
 2B98 90E0              ldi R25,>_Option_Key+2
 2B9A F701              movw R30,R14
 2B9C E80F              add R30,R24
 2B9E F91F              adc R31,R25
 2BA0 8791              elpm R24,Z+
 2BA2 9691              elpm R25,Z
 2BA4 8055              subi R24,80
 2BA6 9040              sbci R25,0
 2BA8 9B83              std y+3,R25
 2BAA 8A83              std y+2,R24
 2BAC C601              movw R24,R12
 2BAE 800F              add R24,R16
 2BB0 911F              adc R25,R17
 2BB2 8C52              subi R24,44
 2BB4 9140              sbci R25,1
 2BB6 9983              std y+1,R25
 2BB8 8883              std y+0,R24
 2BBA 26E1              ldi R18,22
 2BBC 0027              clr R16
 2BBE 0E940000          xcall _cut_pic
 2BC2                   .dbline 1168
 2BC2           ;    }
 2BC2           L671:
 2BC2                   .dbline 1165
 2BC2 4395              inc R20
 2BC4           L673:
 2BC4                   .dbline 1165
 2BC4 4430              cpi R20,4
 2BC6 08F4              brsh X300
 2BC8 A7CF              xjmp L670
 2BCA           X300:
 2BCA           X290:
 2BCA                   .dbline 1169
 2BCA           ;    DisPage=OPTIONPAGE;
 2BCA 8CE0              ldi R24,12
 2BCC 80930000          sts _DisPage,R24
 2BD0                   .dbline 1170
 2BD0           ;  }
 2BD0 D5C2              xjmp L665
 2BD2           L664:
 2BD2                   .dbline 1171
 2BD2           ;  else if(KeyID==2)
 2BD2 80910000          lds R24,_KeyID
 2BD6 8230              cpi R24,2
 2BD8 09F0              breq X301
 2BDA D5C0              xjmp L678
 2BDC           X301:
 2BDC           X291:
 2BDC                   .dbline 1172
 2BDC           ;  {
 2BDC                   .dbline 1173
 2BDC           ;    cut_pic(0,20,System_Key[KeyID].XS,System_Key[KeyID].YS,System_Key[KeyID].XE,System_Key[KeyID].YE,System_Key[KeyID].XS,System_Key[KeyID].YS);
 2BDC C82E              mov R12,R24
 2BDE DD24              clr R13
 2BE0 CC0C              lsl R12
 2BE2 DD1C              rol R13
 2BE4 CC0C              lsl R12
 2BE6 DD1C              rol R13
 2BE8 CC0C              lsl R12
 2BEA DD1C              rol R13
 2BEC 80E0              ldi R24,<_System_Key+2
 2BEE 90E0              ldi R25,>_System_Key+2
 2BF0 F601              movw R30,R12
 2BF2 E80F              add R30,R24
 2BF4 F91F              adc R31,R25
 2BF6 2790              elpm R2,Z+
 2BF8 3690              elpm R3,Z
 2BFA 3B86              std y+11,R3
 2BFC 2A86              std y+10,R2
 2BFE 80E0              ldi R24,<_System_Key
 2C00 90E0              ldi R25,>_System_Key
 2C02 F601              movw R30,R12
 2C04 E80F              add R30,R24
 2C06 F91F              adc R31,R25
 2C08 A790              elpm R10,Z+
 2C0A B690              elpm R11,Z
 2C0C B986              std y+9,R11
 2C0E A886              std y+8,R10
 2C10 80E0              ldi R24,<_System_Key+6
 2C12 90E0              ldi R25,>_System_Key+6
 2C14 F601              movw R30,R12
 2C16 E80F              add R30,R24
 2C18 F91F              adc R31,R25
 2C1A 2790              elpm R2,Z+
 2C1C 3690              elpm R3,Z
 2C1E 3F82              std y+7,R3
 2C20 2E82              std y+6,R2
 2C22 80E0              ldi R24,<_System_Key+4
 2C24 90E0              ldi R25,>_System_Key+4
 2C26 F601              movw R30,R12
 2C28 E80F              add R30,R24
 2C2A F91F              adc R31,R25
 2C2C 2790              elpm R2,Z+
 2C2E 3690              elpm R3,Z
 2C30 3D82              std y+5,R3
 2C32 2C82              std y+4,R2
 2C34 80E0              ldi R24,<_System_Key+2
 2C36 90E0              ldi R25,>_System_Key+2
 2C38 F601              movw R30,R12
 2C3A E80F              add R30,R24
 2C3C F91F              adc R31,R25
 2C3E 2790              elpm R2,Z+
 2C40 3690              elpm R3,Z
 2C42 3B82              std y+3,R3
 2C44 2A82              std y+2,R2
 2C46 B982              std y+1,R11
 2C48 A882              std y+0,R10
 2C4A 24E1              ldi R18,20
 2C4C 0027              clr R16
 2C4E 0E940000          xcall _cut_pic
 2C52                   .dbline 1174
 2C52           ;    cut_pic(0,21,0,300,269,460,300,200);
 2C52 88EC              ldi R24,200
 2C54 90E0              ldi R25,0
 2C56 9B87              std y+11,R25
 2C58 8A87              std y+10,R24
 2C5A 8CE2              ldi R24,300
 2C5C 91E0              ldi R25,1
 2C5E 9987              std y+9,R25
 2C60 8887              std y+8,R24
 2C62 8CEC              ldi R24,204
 2C64 9F83              std y+7,R25
 2C66 8E83              std y+6,R24
 2C68 8DE0              ldi R24,13
 2C6A 9D83              std y+5,R25
 2C6C 8C83              std y+4,R24
 2C6E 8CE2              ldi R24,44
 2C70 9B83              std y+3,R25
 2C72 8A83              std y+2,R24
 2C74 2224              clr R2
 2C76 3324              clr R3
 2C78 3982              std y+1,R3
 2C7A 2882              std y+0,R2
 2C7C 25E1              ldi R18,21
 2C7E 0027              clr R16
 2C80 0E940000          xcall _cut_pic
 2C84                   .dbline 1176
 2C84           ; 
 2C84           ;     cut_pic(0,21,18+(WorktimeSet*272),372,95+(WorktimeSet*271),423,318,272);
 2C84 80E1              ldi R24,272
 2C86 91E0              ldi R25,1
 2C88 9B87              std y+11,R25
 2C8A 8A87              std y+10,R24
 2C8C 8EE3              ldi R24,62
 2C8E 9987              std y+9,R25
 2C90 8887              std y+8,R24
 2C92 87EA              ldi R24,167
 2C94 9F83              std y+7,R25
 2C96 8E83              std y+6,R24
 2C98 A0900000          lds R10,_WorktimeSet
 2C9C 2A2D              mov R18,R10
 2C9E 3327              clr R19
 2CA0 0FE0              ldi R16,271
 2CA2 11E0              ldi R17,1
 2CA4 0E940000          xcall empy16s
 2CA8 C801              movw R24,R16
 2CAA 815A              subi R24,161  ; offset = 95
 2CAC 9F4F              sbci R25,255
 2CAE 9D83              std y+5,R25
 2CB0 8C83              std y+4,R24
 2CB2 84E7              ldi R24,372
 2CB4 91E0              ldi R25,1
 2CB6 9B83              std y+3,R25
 2CB8 8A83              std y+2,R24
 2CBA 2A2D              mov R18,R10
 2CBC 3327              clr R19
 2CBE 00E1              ldi R16,272
 2CC0 11E0              ldi R17,1
 2CC2 0E940000          xcall empy16s
 2CC6 C801              movw R24,R16
 2CC8 4296              adiw R24,18
 2CCA 9983              std y+1,R25
 2CCC 8883              std y+0,R24
 2CCE 25E1              ldi R18,21
 2CD0 0027              clr R16
 2CD2 0E940000          xcall _cut_pic
 2CD6                   .dbline 1177
 2CD6           ;     cut_pic(0,21,96+(PressureSet*272),372,172+(PressureSet*271),423,396,272); 
 2CD6 80E1              ldi R24,272
 2CD8 91E0              ldi R25,1
 2CDA 9B87              std y+11,R25
 2CDC 8A87              std y+10,R24
 2CDE 8CE8              ldi R24,140
 2CE0 9987              std y+9,R25
 2CE2 8887              std y+8,R24
 2CE4 87EA              ldi R24,167
 2CE6 9F83              std y+7,R25
 2CE8 8E83              std y+6,R24
 2CEA A0900000          lds R10,_PressureSet
 2CEE 2A2D              mov R18,R10
 2CF0 3327              clr R19
 2CF2 0FE0              ldi R16,271
 2CF4 11E0              ldi R17,1
 2CF6 0E940000          xcall empy16s
 2CFA C801              movw R24,R16
 2CFC 8455              subi R24,84  ; offset = 172
 2CFE 9F4F              sbci R25,255
 2D00 9D83              std y+5,R25
 2D02 8C83              std y+4,R24
 2D04 84E7              ldi R24,372
 2D06 91E0              ldi R25,1
 2D08 9B83              std y+3,R25
 2D0A 8A83              std y+2,R24
 2D0C 2A2D              mov R18,R10
 2D0E 3327              clr R19
 2D10 00E1              ldi R16,272
 2D12 11E0              ldi R17,1
 2D14 0E940000          xcall empy16s
 2D18 C801              movw R24,R16
 2D1A 805A              subi R24,160  ; offset = 96
 2D1C 9F4F              sbci R25,255
 2D1E 9983              std y+1,R25
 2D20 8883              std y+0,R24
 2D22 25E1              ldi R18,21
 2D24 0027              clr R16
 2D26 0E940000          xcall _cut_pic
 2D2A                   .dbline 1178
 2D2A           ;     cut_pic(0,21,173+(ClockSet*272),372,249+(ClockSet*271),423,473,272);                        
 2D2A 80E1              ldi R24,272
 2D2C 91E0              ldi R25,1
 2D2E 9B87              std y+11,R25
 2D30 8A87              std y+10,R24
 2D32 89ED              ldi R24,217
 2D34 9987              std y+9,R25
 2D36 8887              std y+8,R24
 2D38 87EA              ldi R24,167
 2D3A 9F83              std y+7,R25
 2D3C 8E83              std y+6,R24
 2D3E A0900000          lds R10,_ClockSet
 2D42 2A2D              mov R18,R10
 2D44 3327              clr R19
 2D46 0FE0              ldi R16,271
 2D48 11E0              ldi R17,1
 2D4A 0E940000          xcall empy16s
 2D4E C801              movw R24,R16
 2D50 8750              subi R24,7  ; offset = 249
 2D52 9F4F              sbci R25,255
 2D54 9D83              std y+5,R25
 2D56 8C83              std y+4,R24
 2D58 84E7              ldi R24,372
 2D5A 91E0              ldi R25,1
 2D5C 9B83              std y+3,R25
 2D5E 8A83              std y+2,R24
 2D60 2A2D              mov R18,R10
 2D62 3327              clr R19
 2D64 00E1              ldi R16,272
 2D66 11E0              ldi R17,1
 2D68 0E940000          xcall empy16s
 2D6C C801              movw R24,R16
 2D6E 8355              subi R24,83  ; offset = 173
 2D70 9F4F              sbci R25,255
 2D72 9983              std y+1,R25
 2D74 8883              std y+0,R24
 2D76 25E1              ldi R18,21
 2D78 0027              clr R16
 2D7A 0E940000          xcall _cut_pic
 2D7E                   .dbline 1179
 2D7E           ;    DisPage=PARASPAGE;
 2D7E 8DE0              ldi R24,13
 2D80 80930000          sts _DisPage,R24
 2D84                   .dbline 1180
 2D84           ;  }
 2D84 FBC1              xjmp L679
 2D86           L678:
 2D86                   .dbline 1181
 2D86           ;  else if(KeyID==4)
 2D86 80910000          lds R24,_KeyID
 2D8A 8430              cpi R24,4
 2D8C 09F0              breq X302
 2D8E 95C0              xjmp L684
 2D90           X302:
 2D90           X292:
 2D90                   .dbline 1182
 2D90           ;  {
 2D90                   .dbline 1183
 2D90           ;    cut_pic(0,20,System_Key[KeyID].XS,System_Key[KeyID].YS,System_Key[KeyID].XE,System_Key[KeyID].YE,System_Key[KeyID].XS,System_Key[KeyID].YS);
 2D90 C82E              mov R12,R24
 2D92 DD24              clr R13
 2D94 CC0C              lsl R12
 2D96 DD1C              rol R13
 2D98 CC0C              lsl R12
 2D9A DD1C              rol R13
 2D9C CC0C              lsl R12
 2D9E DD1C              rol R13
 2DA0 80E0              ldi R24,<_System_Key+2
 2DA2 90E0              ldi R25,>_System_Key+2
 2DA4 F601              movw R30,R12
 2DA6 E80F              add R30,R24
 2DA8 F91F              adc R31,R25
 2DAA 2790              elpm R2,Z+
 2DAC 3690              elpm R3,Z
 2DAE 3B86              std y+11,R3
 2DB0 2A86              std y+10,R2
 2DB2 80E0              ldi R24,<_System_Key
 2DB4 90E0              ldi R25,>_System_Key
 2DB6 F601              movw R30,R12
 2DB8 E80F              add R30,R24
 2DBA F91F              adc R31,R25
 2DBC A790              elpm R10,Z+
 2DBE B690              elpm R11,Z
 2DC0 B986              std y+9,R11
 2DC2 A886              std y+8,R10
 2DC4 80E0              ldi R24,<_System_Key+6
 2DC6 90E0              ldi R25,>_System_Key+6
 2DC8 F601              movw R30,R12
 2DCA E80F              add R30,R24
 2DCC F91F              adc R31,R25
 2DCE 2790              elpm R2,Z+
 2DD0 3690              elpm R3,Z
 2DD2 3F82              std y+7,R3
 2DD4 2E82              std y+6,R2
 2DD6 80E0              ldi R24,<_System_Key+4
 2DD8 90E0              ldi R25,>_System_Key+4
 2DDA F601              movw R30,R12
 2DDC E80F              add R30,R24
 2DDE F91F              adc R31,R25
 2DE0 2790              elpm R2,Z+
 2DE2 3690              elpm R3,Z
 2DE4 3D82              std y+5,R3
 2DE6 2C82              std y+4,R2
 2DE8 80E0              ldi R24,<_System_Key+2
 2DEA 90E0              ldi R25,>_System_Key+2
 2DEC F601              movw R30,R12
 2DEE E80F              add R30,R24
 2DF0 F91F              adc R31,R25
 2DF2 2790              elpm R2,Z+
 2DF4 3690              elpm R3,Z
 2DF6 3B82              std y+3,R3
 2DF8 2A82              std y+2,R2
 2DFA B982              std y+1,R11
 2DFC A882              std y+0,R10
 2DFE 24E1              ldi R18,20
 2E00 0027              clr R16
 2E02 0E940000          xcall _cut_pic
 2E06                   .dbline 1184
 2E06           ;    cut_pic(0,24,0,0,269,139,300,200);
 2E06 88EC              ldi R24,200
 2E08 90E0              ldi R25,0
 2E0A 9B87              std y+11,R25
 2E0C 8A87              std y+10,R24
 2E0E 8CE2              ldi R24,300
 2E10 91E0              ldi R25,1
 2E12 9987              std y+9,R25
 2E14 8887              std y+8,R24
 2E16 8BE8              ldi R24,139
 2E18 90E0              ldi R25,0
 2E1A 9F83              std y+7,R25
 2E1C 8E83              std y+6,R24
 2E1E 8DE0              ldi R24,269
 2E20 91E0              ldi R25,1
 2E22 9D83              std y+5,R25
 2E24 8C83              std y+4,R24
 2E26 2224              clr R2
 2E28 3324              clr R3
 2E2A 3B82              std y+3,R3
 2E2C 2A82              std y+2,R2
 2E2E 3982              std y+1,R3
 2E30 2882              std y+0,R2
 2E32 28E1              ldi R18,24
 2E34 0027              clr R16
 2E36 0E940000          xcall _cut_pic
 2E3A                   .dbline 1185
 2E3A           ;    if(VerSet == TRUE)
 2E3A 80910000          lds R24,_VerSet
 2E3E 8130              cpi R24,1
 2E40 E9F4              brne L690
 2E42           X293:
 2E42                   .dbline 1186
 2E42           ;    cut_pic(0,24,290,40,539,139,320,240);
 2E42 80EF              ldi R24,240
 2E44 90E0              ldi R25,0
 2E46 9B87              std y+11,R25
 2E48 8A87              std y+10,R24
 2E4A 80E4              ldi R24,320
 2E4C 91E0              ldi R25,1
 2E4E 9987              std y+9,R25
 2E50 8887              std y+8,R24
 2E52 8BE8              ldi R24,139
 2E54 90E0              ldi R25,0
 2E56 9F83              std y+7,R25
 2E58 8E83              std y+6,R24
 2E5A 8BE1              ldi R24,539
 2E5C 92E0              ldi R25,2
 2E5E 9D83              std y+5,R25
 2E60 8C83              std y+4,R24
 2E62 88E2              ldi R24,40
 2E64 90E0              ldi R25,0
 2E66 9B83              std y+3,R25
 2E68 8A83              std y+2,R24
 2E6A 82E2              ldi R24,290
 2E6C 91E0              ldi R25,1
 2E6E 9983              std y+1,R25
 2E70 8883              std y+0,R24
 2E72 28E1              ldi R18,24
 2E74 0027              clr R16
 2E76 0E940000          xcall _cut_pic
 2E7A 1BC0              xjmp L691
 2E7C           L690:
 2E7C                   .dbline 1188
 2E7C           ;    else
 2E7C           ;    cut_pic(0,24,20,40,269,139,320,240);
 2E7C 80EF              ldi R24,240
 2E7E 90E0              ldi R25,0
 2E80 9B87              std y+11,R25
 2E82 8A87              std y+10,R24
 2E84 80E4              ldi R24,320
 2E86 91E0              ldi R25,1
 2E88 9987              std y+9,R25
 2E8A 8887              std y+8,R24
 2E8C 8BE8              ldi R24,139
 2E8E 90E0              ldi R25,0
 2E90 9F83              std y+7,R25
 2E92 8E83              std y+6,R24
 2E94 8DE0              ldi R24,269
 2E96 91E0              ldi R25,1
 2E98 9D83              std y+5,R25
 2E9A 8C83              std y+4,R24
 2E9C 88E2              ldi R24,40
 2E9E 90E0              ldi R25,0
 2EA0 9B83              std y+3,R25
 2EA2 8A83              std y+2,R24
 2EA4 84E1              ldi R24,20
 2EA6 9983              std y+1,R25
 2EA8 8883              std y+0,R24
 2EAA 28E1              ldi R18,24
 2EAC 0027              clr R16
 2EAE 0E940000          xcall _cut_pic
 2EB2           L691:
 2EB2                   .dbline 1189
 2EB2           ;    DisPage=VERSIONPAGE;
 2EB2 8FE0              ldi R24,15
 2EB4 80930000          sts _DisPage,R24
 2EB8                   .dbline 1190
 2EB8           ;  }
 2EB8 61C1              xjmp L685
 2EBA           L684:
 2EBA                   .dbline 1191
 2EBA           ;  else if(KeyID==5)
 2EBA 80910000          lds R24,_KeyID
 2EBE 8530              cpi R24,5
 2EC0 21F4              brne L692
 2EC2           X294:
 2EC2                   .dbline 1192
 2EC2           ;  {
 2EC2                   .dbline 1193
 2EC2           ;    DisPage=PARMPAGE;
 2EC2 80E1              ldi R24,16
 2EC4 80930000          sts _DisPage,R24
 2EC8                   .dbline 1194
 2EC8           ;  }
 2EC8 59C1              xjmp L693
 2ECA           L692:
 2ECA                   .dbline 1195
 2ECA           ;  else if(KeyID==6)
 2ECA 80910000          lds R24,_KeyID
 2ECE 8630              cpi R24,6
 2ED0 09F0              breq X303
 2ED2 7DC0              xjmp L694
 2ED4           X303:
 2ED4           X295:
 2ED4                   .dbline 1196
 2ED4           ;  {
 2ED4                   .dbline 1197
 2ED4           ;    cut_pic(0,20,System_Key[KeyID].XS,System_Key[KeyID].YS,System_Key[KeyID].XE,System_Key[KeyID].YE,System_Key[KeyID].XS,System_Key[KeyID].YS);
 2ED4 C82E              mov R12,R24
 2ED6 DD24              clr R13
 2ED8 CC0C              lsl R12
 2EDA DD1C              rol R13
 2EDC CC0C              lsl R12
 2EDE DD1C              rol R13
 2EE0 CC0C              lsl R12
 2EE2 DD1C              rol R13
 2EE4 80E0              ldi R24,<_System_Key+2
 2EE6 90E0              ldi R25,>_System_Key+2
 2EE8 F601              movw R30,R12
 2EEA E80F              add R30,R24
 2EEC F91F              adc R31,R25
 2EEE 2790              elpm R2,Z+
 2EF0 3690              elpm R3,Z
 2EF2 3B86              std y+11,R3
 2EF4 2A86              std y+10,R2
 2EF6 80E0              ldi R24,<_System_Key
 2EF8 90E0              ldi R25,>_System_Key
 2EFA F601              movw R30,R12
 2EFC E80F              add R30,R24
 2EFE F91F              adc R31,R25
 2F00 A790              elpm R10,Z+
 2F02 B690              elpm R11,Z
 2F04 B986              std y+9,R11
 2F06 A886              std y+8,R10
 2F08 80E0              ldi R24,<_System_Key+6
 2F0A 90E0              ldi R25,>_System_Key+6
 2F0C F601              movw R30,R12
 2F0E E80F              add R30,R24
 2F10 F91F              adc R31,R25
 2F12 2790              elpm R2,Z+
 2F14 3690              elpm R3,Z
 2F16 3F82              std y+7,R3
 2F18 2E82              std y+6,R2
 2F1A 80E0              ldi R24,<_System_Key+4
 2F1C 90E0              ldi R25,>_System_Key+4
 2F1E F601              movw R30,R12
 2F20 E80F              add R30,R24
 2F22 F91F              adc R31,R25
 2F24 2790              elpm R2,Z+
 2F26 3690              elpm R3,Z
 2F28 3D82              std y+5,R3
 2F2A 2C82              std y+4,R2
 2F2C 80E0              ldi R24,<_System_Key+2
 2F2E 90E0              ldi R25,>_System_Key+2
 2F30 F601              movw R30,R12
 2F32 E80F              add R30,R24
 2F34 F91F              adc R31,R25
 2F36 2790              elpm R2,Z+
 2F38 3690              elpm R3,Z
 2F3A 3B82              std y+3,R3
 2F3C 2A82              std y+2,R2
 2F3E B982              std y+1,R11
 2F40 A882              std y+0,R10
 2F42 24E1              ldi R18,20
 2F44 0027              clr R16
 2F46 0E940000          xcall _cut_pic
 2F4A                   .dbline 1198
 2F4A           ;    cut_pic(0,18,0,372,269,512,300,200);
 2F4A 88EC              ldi R24,200
 2F4C 90E0              ldi R25,0
 2F4E 9B87              std y+11,R25
 2F50 8A87              std y+10,R24
 2F52 8CE2              ldi R24,300
 2F54 91E0              ldi R25,1
 2F56 9987              std y+9,R25
 2F58 8887              std y+8,R24
 2F5A 80E0              ldi R24,512
 2F5C 92E0              ldi R25,2
 2F5E 9F83              std y+7,R25
 2F60 8E83              std y+6,R24
 2F62 8DE0              ldi R24,269
 2F64 91E0              ldi R25,1
 2F66 9D83              std y+5,R25
 2F68 8C83              std y+4,R24
 2F6A 84E7              ldi R24,116
 2F6C 9B83              std y+3,R25
 2F6E 8A83              std y+2,R24
 2F70 2224              clr R2
 2F72 3324              clr R3
 2F74 3982              std y+1,R3
 2F76 2882              std y+0,R2
 2F78 22E1              ldi R18,18
 2F7A 0027              clr R16
 2F7C 0E940000          xcall _cut_pic
 2F80                   .dbline 1199
 2F80           ;    cut_pic(0,18,CardSet*271,422,269+CardSet*271,512,300,250);
 2F80 8AEF              ldi R24,250
 2F82 90E0              ldi R25,0
 2F84 9B87              std y+11,R25
 2F86 8A87              std y+10,R24
 2F88 8CE2              ldi R24,300
 2F8A 91E0              ldi R25,1
 2F8C 9987              std y+9,R25
 2F8E 8887              std y+8,R24
 2F90 80E0              ldi R24,512
 2F92 92E0              ldi R25,2
 2F94 9F83              std y+7,R25
 2F96 8E83              std y+6,R24
 2F98 20910000          lds R18,_CardSet
 2F9C 3327              clr R19
 2F9E 0FE0              ldi R16,271
 2FA0 11E0              ldi R17,1
 2FA2 0E940000          xcall empy16s
 2FA6 A801              movw R20,R16
 2FA8 CA01              movw R24,R20
 2FAA 835F              subi R24,243  ; offset = 269
 2FAC 9E4F              sbci R25,254
 2FAE 9D83              std y+5,R25
 2FB0 8C83              std y+4,R24
 2FB2 86EA              ldi R24,422
 2FB4 91E0              ldi R25,1
 2FB6 9B83              std y+3,R25
 2FB8 8A83              std y+2,R24
 2FBA 5983              std y+1,R21
 2FBC 4883              std y+0,R20
 2FBE 22E1              ldi R18,18
 2FC0 0027              clr R16
 2FC2 0E940000          xcall _cut_pic
 2FC6                   .dbline 1200
 2FC6           ;    DisPage=ICCARDPAGE;
 2FC6 81E1              ldi R24,17
 2FC8 80930000          sts _DisPage,R24
 2FCC                   .dbline 1201
 2FCC           ;  }
 2FCC D7C0              xjmp L695
 2FCE           L694:
 2FCE                   .dbline 1202
 2FCE           ;  else if(KeyID==7)
 2FCE 80910000          lds R24,_KeyID
 2FD2 8730              cpi R24,7
 2FD4 09F0              breq X304
 2FD6 59C0              xjmp L700
 2FD8           X304:
 2FD8           X296:
 2FD8                   .dbline 1203
 2FD8           ;  {
 2FD8                   .dbline 1204
 2FD8           ;    cut_pic(0,20,System_Key[KeyID].XS,System_Key[KeyID].YS,System_Key[KeyID].XE,System_Key[KeyID].YE,System_Key[KeyID].XS,System_Key[KeyID].YS);
 2FD8 C82E              mov R12,R24
 2FDA DD24              clr R13
 2FDC CC0C              lsl R12
 2FDE DD1C              rol R13
 2FE0 CC0C              lsl R12
 2FE2 DD1C              rol R13
 2FE4 CC0C              lsl R12
 2FE6 DD1C              rol R13
 2FE8 80E0              ldi R24,<_System_Key+2
 2FEA 90E0              ldi R25,>_System_Key+2
 2FEC F601              movw R30,R12
 2FEE E80F              add R30,R24
 2FF0 F91F              adc R31,R25
 2FF2 2790              elpm R2,Z+
 2FF4 3690              elpm R3,Z
 2FF6 3B86              std y+11,R3
 2FF8 2A86              std y+10,R2
 2FFA 80E0              ldi R24,<_System_Key
 2FFC 90E0              ldi R25,>_System_Key
 2FFE F601              movw R30,R12
 3000 E80F              add R30,R24
 3002 F91F              adc R31,R25
 3004 A790              elpm R10,Z+
 3006 B690              elpm R11,Z
 3008 B986              std y+9,R11
 300A A886              std y+8,R10
 300C 80E0              ldi R24,<_System_Key+6
 300E 90E0              ldi R25,>_System_Key+6
 3010 F601              movw R30,R12
 3012 E80F              add R30,R24
 3014 F91F              adc R31,R25
 3016 2790              elpm R2,Z+
 3018 3690              elpm R3,Z
 301A 3F82              std y+7,R3
 301C 2E82              std y+6,R2
 301E 80E0              ldi R24,<_System_Key+4
 3020 90E0              ldi R25,>_System_Key+4
 3022 F601              movw R30,R12
 3024 E80F              add R30,R24
 3026 F91F              adc R31,R25
 3028 2790              elpm R2,Z+
 302A 3690              elpm R3,Z
 302C 3D82              std y+5,R3
 302E 2C82              std y+4,R2
 3030 80E0              ldi R24,<_System_Key+2
 3032 90E0              ldi R25,>_System_Key+2
 3034 F601              movw R30,R12
 3036 E80F              add R30,R24
 3038 F91F              adc R31,R25
 303A 2790              elpm R2,Z+
 303C 3690              elpm R3,Z
 303E 3B82              std y+3,R3
 3040 2A82              std y+2,R2
 3042 B982              std y+1,R11
 3044 A882              std y+0,R10
 3046 24E1              ldi R18,20
 3048 0027              clr R16
 304A 0E940000          xcall _cut_pic
 304E                   .dbline 1205
 304E           ;    cut_pic(0,26,0,0,269,139,300,200);
 304E 88EC              ldi R24,200
 3050 90E0              ldi R25,0
 3052 9B87              std y+11,R25
 3054 8A87              std y+10,R24
 3056 8CE2              ldi R24,300
 3058 91E0              ldi R25,1
 305A 9987              std y+9,R25
 305C 8887              std y+8,R24
 305E 8BE8              ldi R24,139
 3060 90E0              ldi R25,0
 3062 9F83              std y+7,R25
 3064 8E83              std y+6,R24
 3066 8DE0              ldi R24,269
 3068 91E0              ldi R25,1
 306A 9D83              std y+5,R25
 306C 8C83              std y+4,R24
 306E 2224              clr R2
 3070 3324              clr R3
 3072 3B82              std y+3,R3
 3074 2A82              std y+2,R2
 3076 3982              std y+1,R3
 3078 2882              std y+0,R2
 307A 2AE1              ldi R18,26
 307C 0027              clr R16
 307E 0E940000          xcall _cut_pic
 3082                   .dbline 1206
 3082           ;    DisPage=RESETPAGE;
 3082 82E1              ldi R24,18
 3084 80930000          sts _DisPage,R24
 3088                   .dbline 1207
 3088           ;  }
 3088 79C0              xjmp L701
 308A           L700:
 308A                   .dbline 1208
 308A           ;  else if(KeyID==8)
 308A 80910000          lds R24,_KeyID
 308E 8830              cpi R24,8
 3090 09F0              breq X305
 3092 74C0              xjmp L706
 3094           X305:
 3094           X297:
 3094                   .dbline 1209
 3094           ;  {
 3094                   .dbline 1210
 3094           ;    cut_pic(0,20,System_Key[KeyID].XS,System_Key[KeyID].YS,System_Key[KeyID].XE,System_Key[KeyID].YE,System_Key[KeyID].XS,System_Key[KeyID].YS);
 3094 C82E              mov R12,R24
 3096 DD24              clr R13
 3098 CC0C              lsl R12
 309A DD1C              rol R13
 309C CC0C              lsl R12
 309E DD1C              rol R13
 30A0 CC0C              lsl R12
 30A2 DD1C              rol R13
 30A4 80E0              ldi R24,<_System_Key+2
 30A6 90E0              ldi R25,>_System_Key+2
 30A8 F601              movw R30,R12
 30AA E80F              add R30,R24
 30AC F91F              adc R31,R25
 30AE 2790              elpm R2,Z+
 30B0 3690              elpm R3,Z
 30B2 3B86              std y+11,R3
 30B4 2A86              std y+10,R2
 30B6 80E0              ldi R24,<_System_Key
 30B8 90E0              ldi R25,>_System_Key
 30BA F601              movw R30,R12
 30BC E80F              add R30,R24
 30BE F91F              adc R31,R25
 30C0 A790              elpm R10,Z+
 30C2 B690              elpm R11,Z
 30C4 B986              std y+9,R11
 30C6 A886              std y+8,R10
 30C8 80E0              ldi R24,<_System_Key+6
 30CA 90E0              ldi R25,>_System_Key+6
 30CC F601              movw R30,R12
 30CE E80F              add R30,R24
 30D0 F91F              adc R31,R25
 30D2 2790              elpm R2,Z+
 30D4 3690              elpm R3,Z
 30D6 3F82              std y+7,R3
 30D8 2E82              std y+6,R2
 30DA 80E0              ldi R24,<_System_Key+4
 30DC 90E0              ldi R25,>_System_Key+4
 30DE F601              movw R30,R12
 30E0 E80F              add R30,R24
 30E2 F91F              adc R31,R25
 30E4 2790              elpm R2,Z+
 30E6 3690              elpm R3,Z
 30E8 3D82              std y+5,R3
 30EA 2C82              std y+4,R2
 30EC 80E0              ldi R24,<_System_Key+2
 30EE 90E0              ldi R25,>_System_Key+2
 30F0 F601              movw R30,R12
 30F2 E80F              add R30,R24
 30F4 F91F              adc R31,R25
 30F6 2790              elpm R2,Z+
 30F8 3690              elpm R3,Z
 30FA 3B82              std y+3,R3
 30FC 2A82              std y+2,R2
 30FE B982              std y+1,R11
 3100 A882              std y+0,R10
 3102 24E1              ldi R18,20
 3104 0027              clr R16
 3106 0E940000          xcall _cut_pic
 310A                   .dbline 1211
 310A           ;    cut_pic(0,27,0,0,269,325,300,100);
 310A 84E6              ldi R24,100
 310C 90E0              ldi R25,0
 310E 9B87              std y+11,R25
 3110 8A87              std y+10,R24
 3112 8CE2              ldi R24,300
 3114 91E0              ldi R25,1
 3116 9987              std y+9,R25
 3118 8887              std y+8,R24
 311A 85E4              ldi R24,69
 311C 9F83              std y+7,R25
 311E 8E83              std y+6,R24
 3120 8DE0              ldi R24,13
 3122 9D83              std y+5,R25
 3124 8C83              std y+4,R24
 3126 2224              clr R2
 3128 3324              clr R3
 312A 3B82              std y+3,R3
 312C 2A82              std y+2,R2
 312E 3982              std y+1,R3
 3130 2882              std y+0,R2
 3132 2BE1              ldi R18,27
 3134 0027              clr R16
 3136 0E940000          xcall _cut_pic
 313A                   .dbline 1212
 313A           ;    text_ptr=0;
 313A 2224              clr R2
 313C 20920000          sts _text_ptr,R2
 3140                   .dbline 1213
 3140           ;    Text[0]=' ';
 3140 80E2              ldi R24,32
 3142 80930000          sts _Text,R24
 3146                   .dbline 1214
 3146           ;    Text[1]=' ';
 3146 80930100          sts _Text+1,R24
 314A                   .dbline 1215
 314A           ;    Text[2]=' ';
 314A 80930200          sts _Text+2,R24
 314E                   .dbline 1216
 314E           ;    Text[3]=' ';
 314E 80930300          sts _Text+3,R24
 3152                   .dbline 1217
 3152           ;    Text[4]=' ';
 3152 80930400          sts _Text+4,R24
 3156                   .dbline 1218
 3156           ;    Text[5]=' ';
 3156 80930500          sts _Text+5,R24
 315A                   .dbline 1219
 315A           ;    Text[6]='\0';
 315A 20920600          sts _Text+6,R2
 315E                   .dbline 1220
 315E           ;    Text[7]='*';
 315E 8AE2              ldi R24,42
 3160 80930700          sts _Text+7,R24
 3164                   .dbline 1221
 3164           ;    Text[8]='\0';
 3164 20920800          sts _Text+8,R2
 3168                   .dbline 1222
 3168           ;    Text[9]=' ';
 3168 80E2              ldi R24,32
 316A 80930900          sts _Text+9,R24
 316E                   .dbline 1223
 316E           ;    Text[10]='\0';
 316E 20920A00          sts _Text+10,R2
 3172                   .dbline 1224
 3172           ;    Text[11]=0;
 3172 20920B00          sts _Text+11,R2
 3176                   .dbline 1225
 3176           ;    DisPage=PASSSETPAGE;
 3176 83E1              ldi R24,19
 3178 80930000          sts _DisPage,R24
 317C                   .dbline 1226
 317C           ;  }
 317C           L706:
 317C           L701:
 317C           L695:
 317C           L693:
 317C           L685:
 317C           L679:
 317C           L665:
 317C           L659:
 317C                   .dbline -2
 317C           L655:
 317C                   .dbline 0 ; func end
 317C 2C96              adiw R28,12
 317E 0C940000          xjmp pop_xgset30FC
 3182                   .dbsym r i 20 c
 3182                   .dbend
 3182                   .dbfunc e SystemKeyUp _SystemKeyUp fV
                        .even
 3182           _SystemKeyUp::
 3182                   .dbline -1
 3182                   .dbline 1229
 3182           ; }
 3182           ; void SystemKeyUp(void)
 3182           ; {
 3182                   .dbline 1230
 3182           ;  if(DisPage!=SYSTEMPAGE) return;
 3182 80910000          lds R24,_DisPage
 3186 8A30              cpi R24,10
 3188 09F0              breq L724
 318A           X306:
 318A                   .dbline 1230
 318A 09C0              xjmp L723
 318C           L724:
 318C                   .dbline 1231
 318C           ;  if(KeyID==9)
 318C 80910000          lds R24,_KeyID
 3190 8930              cpi R24,9
 3192 29F4              brne L726
 3194           X307:
 3194                   .dbline 1232
 3194           ;  {
 3194                   .dbline 1233
 3194           ;    DisWelcome();
 3194 0E945302          xcall _DisWelcome
 3198                   .dbline 1234
 3198           ;    DisPage=WELCOMEPAGE;
 3198 2224              clr R2
 319A 20920000          sts _DisPage,R2
 319E                   .dbline 1235
 319E           ;  }
 319E           L726:
 319E                   .dbline -2
 319E           L723:
 319E                   .dbline 0 ; func end
 319E 0895              ret
 31A0                   .dbend
 31A0                   .dbfunc e ClearCountKeyDown _ClearCountKeyDown fV
                        .even
 31A0           _ClearCountKeyDown::
 31A0 4A93              st -y,R20
 31A2 5A93              st -y,R21
 31A4 2C97              sbiw R28,12
 31A6                   .dbline -1
 31A6                   .dbline 1238
 31A6           ; }
 31A6           ; void ClearCountKeyDown(void)
 31A6           ; {
 31A6                   .dbline 1239
 31A6           ;   if(DisPage!=WORKTIMEPAGE) return;
 31A6 80910000          lds R24,_DisPage
 31AA 8B30              cpi R24,11
 31AC 09F0              breq L729
 31AE           X308:
 31AE                   .dbline 1239
 31AE 8CC0              xjmp L728
 31B0           L729:
 31B0                   .dbline 1240
 31B0           ;   KeyID=GetKeyID(Count_Key,2); 
 31B0 22E0              ldi R18,2
 31B2 00E0              ldi R16,<_Count_Key
 31B4 10E0              ldi R17,>_Count_Key
 31B6 0E949F03          xcall _GetKeyID
 31BA 00930000          sts _KeyID,R16
 31BE                   .dbline 1241
 31BE           ;   if(KeyID<1)
 31BE 802F              mov R24,R16
 31C0 0130              cpi R16,1
 31C2 08F0              brlo X311
 31C4 81C0              xjmp L731
 31C6           X311:
 31C6           X309:
 31C6                   .dbline 1242
 31C6           ;   {   
 31C6                   .dbline 1243
 31C6           ;       cut_pic(0,21,Count_Key[KeyID].XS-28,Count_Key[KeyID].YS-100,Count_Key[KeyID].XE-28,Count_Key[KeyID].YE-100,Count_Key[KeyID].XS,Count_Key[KeyID].YS);
 31C6 282E              mov R2,R24
 31C8 3324              clr R3
 31CA 220C              lsl R2
 31CC 331C              rol R3
 31CE 220C              lsl R2
 31D0 331C              rol R3
 31D2 220C              lsl R2
 31D4 331C              rol R3
 31D6 2101              movw R4,R2
 31D8 80E0              ldi R24,<_Count_Key+2
 31DA 90E0              ldi R25,>_Count_Key+2
 31DC F101              movw R30,R2
 31DE E80F              add R30,R24
 31E0 F91F              adc R31,R25
 31E2 2790              elpm R2,Z+
 31E4 3690              elpm R3,Z
 31E6 3B86              std y+11,R3
 31E8 2A86              std y+10,R2
 31EA 80E0              ldi R24,<_Count_Key
 31EC 90E0              ldi R25,>_Count_Key
 31EE F201              movw R30,R4
 31F0 E80F              add R30,R24
 31F2 F91F              adc R31,R25
 31F4 4791              elpm R20,Z+
 31F6 5691              elpm R21,Z
 31F8 5987              std y+9,R21
 31FA 4887              std y+8,R20
 31FC 80E0              ldi R24,<_Count_Key+6
 31FE 90E0              ldi R25,>_Count_Key+6
 3200 F201              movw R30,R4
 3202 E80F              add R30,R24
 3204 F91F              adc R31,R25
 3206 8791              elpm R24,Z+
 3208 9691              elpm R25,Z
 320A 8456              subi R24,100
 320C 9040              sbci R25,0
 320E 9F83              std y+7,R25
 3210 8E83              std y+6,R24
 3212 80E0              ldi R24,<_Count_Key+4
 3214 90E0              ldi R25,>_Count_Key+4
 3216 F201              movw R30,R4
 3218 E80F              add R30,R24
 321A F91F              adc R31,R25
 321C 8791              elpm R24,Z+
 321E 9691              elpm R25,Z
 3220 4C97              sbiw R24,28
 3222 9D83              std y+5,R25
 3224 8C83              std y+4,R24
 3226 80E0              ldi R24,<_Count_Key+2
 3228 90E0              ldi R25,>_Count_Key+2
 322A F201              movw R30,R4
 322C E80F              add R30,R24
 322E F91F              adc R31,R25
 3230 8791              elpm R24,Z+
 3232 9691              elpm R25,Z
 3234 8456              subi R24,100
 3236 9040              sbci R25,0
 3238 9B83              std y+3,R25
 323A 8A83              std y+2,R24
 323C CA01              movw R24,R20
 323E 4C97              sbiw R24,28
 3240 9983              std y+1,R25
 3242 8883              std y+0,R24
 3244 25E1              ldi R18,21
 3246 0027              clr R16
 3248 0E940000          xcall _cut_pic
 324C                   .dbline 1244
 324C           ;     Total_counter=0;
 324C 80E0              ldi R24,0
 324E 80930000          sts _Total_counter+0,R24
 3252 80930100          sts _Total_counter+1,R24
 3256 80930200          sts _Total_counter+2,R24
 325A 80930300          sts _Total_counter+3,R24
 325E                   .dbline 1245
 325E           ;     if(CardSet==0) Work_counter=0;
 325E 20900000          lds R2,_CardSet
 3262 2220              tst R2
 3264 31F4              brne L737
 3266           X310:
 3266                   .dbline 1245
 3266 2224              clr R2
 3268 3324              clr R3
 326A 30920100          sts _Work_counter+1,R3
 326E 20920000          sts _Work_counter,R2
 3272           L737:
 3272                   .dbline 1247
 3272           ;       //EEPROMWriteBytes(CounterAddr+hand[Intensity[8]]*4,&Total_counter,4);
 3272           ;     LtoA(Total_counter,Text);
 3272 80E0              ldi R24,<_Text
 3274 90E0              ldi R25,>_Text
 3276 9983              std y+1,R25
 3278 8883              std y+0,R24
 327A 20910200          lds R18,_Total_counter+2
 327E 30910300          lds R19,_Total_counter+2+1
 3282 00910000          lds R16,_Total_counter
 3286 10910100          lds R17,_Total_counter+1
 328A 0E949F00          xcall _LtoA
 328E                   .dbline 1248
 328E           ;     print_texts(340,180+KeyID*80+80,0,0xD1,2,0x04bb,0xffff,Text);
 328E 80E0              ldi R24,<_Text
 3290 90E0              ldi R25,>_Text
 3292 9B87              std y+11,R25
 3294 8A87              std y+10,R24
 3296 8FEF              ldi R24,65535
 3298 9FEF              ldi R25,255
 329A 9987              std y+9,R25
 329C 8887              std y+8,R24
 329E 8BEB              ldi R24,1211
 32A0 94E0              ldi R25,4
 32A2 9F83              std y+7,R25
 32A4 8E83              std y+6,R24
 32A6 82E0              ldi R24,2
 32A8 8C83              std y+4,R24
 32AA 81ED              ldi R24,209
 32AC 8A83              std y+2,R24
 32AE 2224              clr R2
 32B0 2882              std y+0,R2
 32B2 10910000          lds R17,_KeyID
 32B6 00E5              ldi R16,80
 32B8 0103              mulsu R16,R17
 32BA 9001              movw R18,R0
 32BC 2C5F              subi R18,252  ; offset = 260
 32BE 3E4F              sbci R19,254
 32C0 04E5              ldi R16,340
 32C2 11E0              ldi R17,1
 32C4 0E940000          xcall _print_texts
 32C8                   .dbline 1249
 32C8           ;   }
 32C8           L731:
 32C8                   .dbline -2
 32C8           L728:
 32C8                   .dbline 0 ; func end
 32C8 2C96              adiw R28,12
 32CA 5991              ld R21,y+
 32CC 4991              ld R20,y+
 32CE 0895              ret
 32D0                   .dbend
 32D0                   .dbfunc e ClearCountKeyUp _ClearCountKeyUp fV
                        .even
 32D0           _ClearCountKeyUp::
 32D0 2C97              sbiw R28,12
 32D2                   .dbline -1
 32D2                   .dbline 1252
 32D2           ; }
 32D2           ; void ClearCountKeyUp(void)
 32D2           ; {
 32D2                   .dbline 1253
 32D2           ;   if(DisPage!=WORKTIMEPAGE) return; 
 32D2 80910000          lds R24,_DisPage
 32D6 8B30              cpi R24,11
 32D8 09F0              breq L740
 32DA           X312:
 32DA                   .dbline 1253
 32DA 55C0              xjmp L739
 32DC           L740:
 32DC                   .dbline 1254
 32DC           ;   if(KeyID<1)
 32DC 80910000          lds R24,_KeyID
 32E0 8130              cpi R24,1
 32E2 08F0              brlo X315
 32E4 46C0              xjmp L742
 32E6           X315:
 32E6           X313:
 32E6                   .dbline 1255
 32E6           ;   {
 32E6                   .dbline 1256
 32E6           ;     cut_pic(0,21,Count_Key[KeyID].XS-300,Count_Key[KeyID].YS-100,Count_Key[KeyID].XE-300,Count_Key[KeyID].YE-100,Count_Key[KeyID].XS,Count_Key[KeyID].YS);
 32E6 282E              mov R2,R24
 32E8 3324              clr R3
 32EA 220C              lsl R2
 32EC 331C              rol R3
 32EE 220C              lsl R2
 32F0 331C              rol R3
 32F2 220C              lsl R2
 32F4 331C              rol R3
 32F6 2101              movw R4,R2
 32F8 80E0              ldi R24,<_Count_Key+2
 32FA 90E0              ldi R25,>_Count_Key+2
 32FC F101              movw R30,R2
 32FE E80F              add R30,R24
 3300 F91F              adc R31,R25
 3302 2790              elpm R2,Z+
 3304 3690              elpm R3,Z
 3306 3B86              std y+11,R3
 3308 2A86              std y+10,R2
 330A 80E0              ldi R24,<_Count_Key
 330C 90E0              ldi R25,>_Count_Key
 330E F201              movw R30,R4
 3310 E80F              add R30,R24
 3312 F91F              adc R31,R25
 3314 2790              elpm R2,Z+
 3316 3690              elpm R3,Z
 3318 3986              std y+9,R3
 331A 2886              std y+8,R2
 331C 80E0              ldi R24,<_Count_Key+6
 331E 90E0              ldi R25,>_Count_Key+6
 3320 F201              movw R30,R4
 3322 E80F              add R30,R24
 3324 F91F              adc R31,R25
 3326 8791              elpm R24,Z+
 3328 9691              elpm R25,Z
 332A 8456              subi R24,100
 332C 9040              sbci R25,0
 332E 9F83              std y+7,R25
 3330 8E83              std y+6,R24
 3332 80E0              ldi R24,<_Count_Key+4
 3334 90E0              ldi R25,>_Count_Key+4
 3336 F201              movw R30,R4
 3338 E80F              add R30,R24
 333A F91F              adc R31,R25
 333C 8791              elpm R24,Z+
 333E 9691              elpm R25,Z
 3340 8C52              subi R24,44
 3342 9140              sbci R25,1
 3344 9D83              std y+5,R25
 3346 8C83              std y+4,R24
 3348 80E0              ldi R24,<_Count_Key+2
 334A 90E0              ldi R25,>_Count_Key+2
 334C F201              movw R30,R4
 334E E80F              add R30,R24
 3350 F91F              adc R31,R25
 3352 8791              elpm R24,Z+
 3354 9691              elpm R25,Z
 3356 8456              subi R24,100
 3358 9040              sbci R25,0
 335A 9B83              std y+3,R25
 335C 8A83              std y+2,R24
 335E C101              movw R24,R2
 3360 8C52              subi R24,44
 3362 9140              sbci R25,1
 3364 9983              std y+1,R25
 3366 8883              std y+0,R24
 3368 25E1              ldi R18,21
 336A 0027              clr R16
 336C 0E940000          xcall _cut_pic
 3370                   .dbline 1257
 3370           ;   }
 3370 0AC0              xjmp L743
 3372           L742:
 3372                   .dbline 1258
 3372           ;   else if(KeyID==1)
 3372 80910000          lds R24,_KeyID
 3376 8130              cpi R24,1
 3378 31F4              brne L748
 337A           X314:
 337A                   .dbline 1259
 337A           ;   {
 337A                   .dbline 1260
 337A           ;     dis_pic(19);
 337A 03E1              ldi R16,19
 337C 0E940000          xcall _dis_pic
 3380                   .dbline 1261
 3380           ;       DisPage=SYSTEMPAGE;
 3380 8AE0              ldi R24,10
 3382 80930000          sts _DisPage,R24
 3386                   .dbline 1262
 3386           ;   }
 3386           L748:
 3386           L743:
 3386                   .dbline -2
 3386           L739:
 3386                   .dbline 0 ; func end
 3386 2C96              adiw R28,12
 3388 0895              ret
 338A                   .dbend
 338A                   .dbfunc e ParmKeyDown _ParmKeyDown fV
                        .even
 338A           _ParmKeyDown::
 338A                   .dbline -1
 338A                   .dbline 1265
 338A           ; }
 338A           ; void ParmKeyDown(void)
 338A           ; {
 338A                   .dbline -2
 338A           L750:
 338A                   .dbline 0 ; func end
 338A 0895              ret
 338C                   .dbend
 338C                   .dbfunc e ParmKeyUp _ParmKeyUp fV
                        .even
 338C           _ParmKeyUp::
 338C 2C97              sbiw R28,12
 338E                   .dbline -1
 338E                   .dbline 1269
 338E           ; 
 338E           ; }
 338E           ; void ParmKeyUp(void)
 338E           ; {
 338E                   .dbline 1270
 338E           ;  if(DisPage!=PARMPAGE) return;
 338E 80910000          lds R24,_DisPage
 3392 8031              cpi R24,16
 3394 09F0              breq L752
 3396           X316:
 3396                   .dbline 1270
 3396 AAC0              xjmp L751
 3398           L752:
 3398                   .dbline 1271
 3398           ;  if(KeyID<13)//????完??
 3398 80910000          lds R24,_KeyID
 339C 8D30              cpi R24,13
 339E 08F0              brlo X322
 33A0 46C0              xjmp L754
 33A2           X322:
 33A2           X317:
 33A2                   .dbline 1272
 33A2           ;  {
 33A2                   .dbline 1273
 33A2           ;    cut_pic(0,25,Card_Key[KeyID].XS-300,Card_Key[KeyID].YS-100,Card_Key[KeyID].XE-300,Card_Key[KeyID].YE-100,Card_Key[KeyID].XS,Card_Key[KeyID].YS);
 33A2 282E              mov R2,R24
 33A4 3324              clr R3
 33A6 220C              lsl R2
 33A8 331C              rol R3
 33AA 220C              lsl R2
 33AC 331C              rol R3
 33AE 220C              lsl R2
 33B0 331C              rol R3
 33B2 2101              movw R4,R2
 33B4 80E0              ldi R24,<_Card_Key+2
 33B6 90E0              ldi R25,>_Card_Key+2
 33B8 F101              movw R30,R2
 33BA E80F              add R30,R24
 33BC F91F              adc R31,R25
 33BE 2790              elpm R2,Z+
 33C0 3690              elpm R3,Z
 33C2 3B86              std y+11,R3
 33C4 2A86              std y+10,R2
 33C6 80E0              ldi R24,<_Card_Key
 33C8 90E0              ldi R25,>_Card_Key
 33CA F201              movw R30,R4
 33CC E80F              add R30,R24
 33CE F91F              adc R31,R25
 33D0 2790              elpm R2,Z+
 33D2 3690              elpm R3,Z
 33D4 3986              std y+9,R3
 33D6 2886              std y+8,R2
 33D8 80E0              ldi R24,<_Card_Key+6
 33DA 90E0              ldi R25,>_Card_Key+6
 33DC F201              movw R30,R4
 33DE E80F              add R30,R24
 33E0 F91F              adc R31,R25
 33E2 8791              elpm R24,Z+
 33E4 9691              elpm R25,Z
 33E6 8456              subi R24,100
 33E8 9040              sbci R25,0
 33EA 9F83              std y+7,R25
 33EC 8E83              std y+6,R24
 33EE 80E0              ldi R24,<_Card_Key+4
 33F0 90E0              ldi R25,>_Card_Key+4
 33F2 F201              movw R30,R4
 33F4 E80F              add R30,R24
 33F6 F91F              adc R31,R25
 33F8 8791              elpm R24,Z+
 33FA 9691              elpm R25,Z
 33FC 8C52              subi R24,44
 33FE 9140              sbci R25,1
 3400 9D83              std y+5,R25
 3402 8C83              std y+4,R24
 3404 80E0              ldi R24,<_Card_Key+2
 3406 90E0              ldi R25,>_Card_Key+2
 3408 F201              movw R30,R4
 340A E80F              add R30,R24
 340C F91F              adc R31,R25
 340E 8791              elpm R24,Z+
 3410 9691              elpm R25,Z
 3412 8456              subi R24,100
 3414 9040              sbci R25,0
 3416 9B83              std y+3,R25
 3418 8A83              std y+2,R24
 341A C101              movw R24,R2
 341C 8C52              subi R24,44
 341E 9140              sbci R25,1
 3420 9983              std y+1,R25
 3422 8883              std y+0,R24
 3424 29E1              ldi R18,25
 3426 0027              clr R16
 3428 0E940000          xcall _cut_pic
 342C                   .dbline 1274
 342C           ;  }
 342C 5FC0              xjmp L755
 342E           L754:
 342E                   .dbline 1275
 342E           ;  else if((KeyID<10)&&(text_ptr<3))
 342E 80910000          lds R24,_KeyID
 3432 8A30              cpi R24,10
 3434 08F0              brlo X323
 3436 50C0              xjmp L760
 3438           X323:
 3438           X318:
 3438 80910000          lds R24,_text_ptr
 343C 8330              cpi R24,3
 343E 08F0              brlo X324
 3440 4BC0              xjmp L760
 3442           X324:
 3442           X319:
 3442                   .dbline 1276
 3442           ;  {
 3442                   .dbline 1277
 3442           ;    print_texts(333,154,0,0xD1,2,0x04bb,0xffff,Text);
 3442 80E0              ldi R24,<_Text
 3444 90E0              ldi R25,>_Text
 3446 9B87              std y+11,R25
 3448 8A87              std y+10,R24
 344A 8FEF              ldi R24,65535
 344C 9FEF              ldi R25,255
 344E 9987              std y+9,R25
 3450 8887              std y+8,R24
 3452 8BEB              ldi R24,1211
 3454 94E0              ldi R25,4
 3456 9F83              std y+7,R25
 3458 8E83              std y+6,R24
 345A 82E0              ldi R24,2
 345C 8C83              std y+4,R24
 345E 81ED              ldi R24,209
 3460 8A83              std y+2,R24
 3462 2224              clr R2
 3464 2882              std y+0,R2
 3466 2AE9              ldi R18,154
 3468 30E0              ldi R19,0
 346A 0DE4              ldi R16,333
 346C 11E0              ldi R17,1
 346E 0E940000          xcall _print_texts
 3472                   .dbline 1278
 3472           ;    if(text_ptr<2) text_ptr++;
 3472 80910000          lds R24,_text_ptr
 3476 8230              cpi R24,2
 3478 20F4              brsh L762
 347A           X320:
 347A                   .dbline 1278
 347A 8F5F              subi R24,255    ; addi 1
 347C 80930000          sts _text_ptr,R24
 3480 03C0              xjmp L763
 3482           L762:
 3482                   .dbline 1279
 3482           ;    else text_ptr=0;
 3482 2224              clr R2
 3484 20920000          sts _text_ptr,R2
 3488           L763:
 3488                   .dbline 1280
 3488           ;    Text[4]=Text[text_ptr];
 3488 80E0              ldi R24,<_Text
 348A 90E0              ldi R25,>_Text
 348C E0910000          lds R30,_text_ptr
 3490 FF27              clr R31
 3492 E80F              add R30,R24
 3494 F91F              adc R31,R25
 3496 2080              ldd R2,z+0
 3498 20920400          sts _Text+4,R2
 349C                   .dbline 1281
 349C           ;    print_texts(333+text_ptr*12,154,0,0xD1,2,0xffff,0x04bb,&Text[4]);
 349C 80E0              ldi R24,<_Text+4
 349E 90E0              ldi R25,>_Text+4
 34A0 9B87              std y+11,R25
 34A2 8A87              std y+10,R24
 34A4 8BEB              ldi R24,1211
 34A6 94E0              ldi R25,4
 34A8 9987              std y+9,R25
 34AA 8887              std y+8,R24
 34AC 8FEF              ldi R24,65535
 34AE 9FEF              ldi R25,255
 34B0 9F83              std y+7,R25
 34B2 8E83              std y+6,R24
 34B4 82E0              ldi R24,2
 34B6 8C83              std y+4,R24
 34B8 81ED              ldi R24,209
 34BA 8A83              std y+2,R24
 34BC 2224              clr R2
 34BE 2882              std y+0,R2
 34C0 2AE9              ldi R18,154
 34C2 30E0              ldi R19,0
 34C4 10910000          lds R17,_text_ptr
 34C8 0CE0              ldi R16,12
 34CA 0103              mulsu R16,R17
 34CC 8001              movw R16,R0
 34CE 035B              subi R16,179  ; offset = 333
 34D0 1E4F              sbci R17,254
 34D2 0E940000          xcall _print_texts
 34D6                   .dbline 1282
 34D6           ;  }
 34D6 0AC0              xjmp L761
 34D8           L760:
 34D8                   .dbline 1283
 34D8           ;  else if(KeyID==15)
 34D8 80910000          lds R24,_KeyID
 34DC 8F30              cpi R24,15
 34DE 31F4              brne L766
 34E0           X321:
 34E0                   .dbline 1284
 34E0           ;  {
 34E0                   .dbline 1285
 34E0           ;    dis_pic(19);
 34E0 03E1              ldi R16,19
 34E2 0E940000          xcall _dis_pic
 34E6                   .dbline 1286
 34E6           ;    DisPage=SYSTEMPAGE;
 34E6 8AE0              ldi R24,10
 34E8 80930000          sts _DisPage,R24
 34EC                   .dbline 1287
 34EC           ;  }
 34EC           L766:
 34EC           L761:
 34EC           L755:
 34EC                   .dbline -2
 34EC           L751:
 34EC                   .dbline 0 ; func end
 34EC 2C96              adiw R28,12
 34EE 0895              ret
 34F0                   .dbend
 34F0                   .dbfunc e OptionKeyDown _OptionKeyDown fV
                        .even
 34F0           _OptionKeyDown::
 34F0 0E940000          xcall push_xgset00FC
 34F4 2C97              sbiw R28,12
 34F6                   .dbline -1
 34F6                   .dbline 1290
 34F6           ; }
 34F6           ; void OptionKeyDown(void)
 34F6           ; {
 34F6                   .dbline 1291
 34F6           ;   if(DisPage!=OPTIONPAGE) return;
 34F6 80910000          lds R24,_DisPage
 34FA 8C30              cpi R24,12
 34FC 09F0              breq L769
 34FE           X325:
 34FE                   .dbline 1291
 34FE 6CC0              xjmp L768
 3500           L769:
 3500                   .dbline 1292
 3500           ;   KeyID=GetKeyID(Option_Key,5); 
 3500 25E0              ldi R18,5
 3502 00E0              ldi R16,<_Option_Key
 3504 10E0              ldi R17,>_Option_Key
 3506 0E949F03          xcall _GetKeyID
 350A 00930000          sts _KeyID,R16
 350E                   .dbline 1293
 350E           ;   if(KeyID<4)
 350E 0430              cpi R16,4
 3510 08F0              brlo X327
 3512 62C0              xjmp L771
 3514           X327:
 3514           X326:
 3514                   .dbline 1294
 3514           ;   {
 3514                   .dbline 1295
 3514           ;     Function_Buf[KeyID]=1-Function_Buf[KeyID];
 3514 80E0              ldi R24,<_Function_Buf
 3516 90E0              ldi R25,>_Function_Buf
 3518 202E              mov R2,R16
 351A 3324              clr R3
 351C 280E              add R2,R24
 351E 391E              adc R3,R25
 3520 F101              movw R30,R2
 3522 2080              ldd R2,z+0
 3524 81E0              ldi R24,1
 3526 8219              sub R24,R2
 3528 8083              std z+0,R24
 352A                   .dbline 1296
 352A           ;       cut_pic(0,22,Option_Key[KeyID].XS+Function_Buf[KeyID]*400-300,Option_Key[KeyID].YS-80,Option_Key[KeyID].XE+Function_Buf[KeyID]*400-300,Option_Key[KeyID].YE-80,Option_Key[KeyID].XS,Option_Key[KeyID].YS);
 352A A0900000          lds R10,_KeyID
 352E EA2C              mov R14,R10
 3530 FF24              clr R15
 3532 EE0C              lsl R14
 3534 FF1C              rol R15
 3536 EE0C              lsl R14
 3538 FF1C              rol R15
 353A EE0C              lsl R14
 353C FF1C              rol R15
 353E 80E0              ldi R24,<_Option_Key+2
 3540 90E0              ldi R25,>_Option_Key+2
 3542 F701              movw R30,R14
 3544 E80F              add R30,R24
 3546 F91F              adc R31,R25
 3548 2790              elpm R2,Z+
 354A 3690              elpm R3,Z
 354C 3B86              std y+11,R3
 354E 2A86              std y+10,R2
 3550 80E0              ldi R24,<_Option_Key
 3552 90E0              ldi R25,>_Option_Key
 3554 F701              movw R30,R14
 3556 E80F              add R30,R24
 3558 F91F              adc R31,R25
 355A C790              elpm R12,Z+
 355C D690              elpm R13,Z
 355E D986              std y+9,R13
 3560 C886              std y+8,R12
 3562 80E0              ldi R24,<_Option_Key+6
 3564 90E0              ldi R25,>_Option_Key+6
 3566 F701              movw R30,R14
 3568 E80F              add R30,R24
 356A F91F              adc R31,R25
 356C 8791              elpm R24,Z+
 356E 9691              elpm R25,Z
 3570 8055              subi R24,80
 3572 9040              sbci R25,0
 3574 9F83              std y+7,R25
 3576 8E83              std y+6,R24
 3578 80E0              ldi R24,<_Function_Buf
 357A 90E0              ldi R25,>_Function_Buf
 357C EA2D              mov R30,R10
 357E FF27              clr R31
 3580 E80F              add R30,R24
 3582 F91F              adc R31,R25
 3584 2081              ldd R18,z+0
 3586 3327              clr R19
 3588 00E9              ldi R16,400
 358A 11E0              ldi R17,1
 358C 0E940000          xcall empy16s
 3590 5801              movw R10,R16
 3592 80E0              ldi R24,<_Option_Key+4
 3594 90E0              ldi R25,>_Option_Key+4
 3596 F701              movw R30,R14
 3598 E80F              add R30,R24
 359A F91F              adc R31,R25
 359C 8791              elpm R24,Z+
 359E 9691              elpm R25,Z
 35A0 800F              add R24,R16
 35A2 911F              adc R25,R17
 35A4 8C52              subi R24,44
 35A6 9140              sbci R25,1
 35A8 9D83              std y+5,R25
 35AA 8C83              std y+4,R24
 35AC 80E0              ldi R24,<_Option_Key+2
 35AE 90E0              ldi R25,>_Option_Key+2
 35B0 F701              movw R30,R14
 35B2 E80F              add R30,R24
 35B4 F91F              adc R31,R25
 35B6 8791              elpm R24,Z+
 35B8 9691              elpm R25,Z
 35BA 8055              subi R24,80
 35BC 9040              sbci R25,0
 35BE 9B83              std y+3,R25
 35C0 8A83              std y+2,R24
 35C2 C601              movw R24,R12
 35C4 800F              add R24,R16
 35C6 911F              adc R25,R17
 35C8 8C52              subi R24,44
 35CA 9140              sbci R25,1
 35CC 9983              std y+1,R25
 35CE 8883              std y+0,R24
 35D0 26E1              ldi R18,22
 35D2 0027              clr R16
 35D4 0E940000          xcall _cut_pic
 35D8                   .dbline 1297
 35D8           ;   }
 35D8           L771:
 35D8                   .dbline -2
 35D8           L768:
 35D8                   .dbline 0 ; func end
 35D8 2C96              adiw R28,12
 35DA 0C940000          xjmp pop_xgset00FC
 35DE                   .dbend
 35DE                   .dbfunc e OptionKeyUp _OptionKeyUp fV
 35DE           ;              i -> R20
                        .even
 35DE           _OptionKeyUp::
 35DE 4A93              st -y,R20
 35E0                   .dbline -1
 35E0                   .dbline 1300
 35E0           ; }
 35E0           ; void OptionKeyUp(void)
 35E0           ; {
 35E0                   .dbline 1302
 35E0           ;   unsigned char i;
 35E0           ;   if(DisPage!=OPTIONPAGE) return;
 35E0 80910000          lds R24,_DisPage
 35E4 8C30              cpi R24,12
 35E6 09F0              breq L778
 35E8           X328:
 35E8                   .dbline 1302
 35E8 28C0              xjmp L777
 35EA           L778:
 35EA                   .dbline 1303
 35EA           ;   if(KeyID==4)
 35EA 80910000          lds R24,_KeyID
 35EE 8430              cpi R24,4
 35F0 21F5              brne L780
 35F2           X329:
 35F2                   .dbline 1304
 35F2           ;   {
 35F2                   .dbline 1306
 35F2           ;     //EEPROMWriteBytes(FunctionAddr,Function_Buf,9);
 35F2           ;       Function_Count=0;
 35F2 2224              clr R2
 35F4 20920000          sts _Function_Count,R2
 35F8                   .dbline 1307
 35F8           ;       for(i=0;i<4;i++)
 35F8 4427              clr R20
 35FA 17C0              xjmp L785
 35FC           L782:
 35FC                   .dbline 1308
 35FC           ;     {
 35FC                   .dbline 1309
 35FC           ;      if(Function_Buf[i]==TRUE)
 35FC 80E0              ldi R24,<_Function_Buf
 35FE 90E0              ldi R25,>_Function_Buf
 3600 E42F              mov R30,R20
 3602 FF27              clr R31
 3604 E80F              add R30,R24
 3606 F91F              adc R31,R25
 3608 8081              ldd R24,z+0
 360A 8130              cpi R24,1
 360C 69F4              brne L786
 360E           X330:
 360E                   .dbline 1310
 360E           ;      {
 360E                   .dbline 1311
 360E           ;        Function_Tab[Function_Count]=i;
 360E 80E0              ldi R24,<_Function_Tab
 3610 90E0              ldi R25,>_Function_Tab
 3612 E0910000          lds R30,_Function_Count
 3616 FF27              clr R31
 3618 E80F              add R30,R24
 361A F91F              adc R31,R25
 361C 4083              std z+0,R20
 361E                   .dbline 1312
 361E           ;          Function_Count++;
 361E 80910000          lds R24,_Function_Count
 3622 8F5F              subi R24,255    ; addi 1
 3624 80930000          sts _Function_Count,R24
 3628                   .dbline 1313
 3628           ;      }
 3628           L786:
 3628                   .dbline 1314
 3628           ;     }
 3628           L783:
 3628                   .dbline 1307
 3628 4395              inc R20
 362A           L785:
 362A                   .dbline 1307
 362A 4430              cpi R20,4
 362C 38F3              brlo L782
 362E           X331:
 362E                   .dbline 1315
 362E           ;       dis_pic(19);
 362E 03E1              ldi R16,19
 3630 0E940000          xcall _dis_pic
 3634                   .dbline 1316
 3634           ;       DisPage=SYSTEMPAGE;
 3634 8AE0              ldi R24,10
 3636 80930000          sts _DisPage,R24
 363A                   .dbline 1317
 363A           ;   }
 363A           L780:
 363A                   .dbline -2
 363A           L777:
 363A                   .dbline 0 ; func end
 363A 4991              ld R20,y+
 363C 0895              ret
 363E                   .dbsym r i 20 c
 363E                   .dbend
 363E                   .dbfunc e CardSetKeyDown _CardSetKeyDown fV
                        .even
 363E           _CardSetKeyDown::
 363E 2C97              sbiw R28,12
 3640                   .dbline -1
 3640                   .dbline 1320
 3640           ; }
 3640           ; void CardSetKeyDown(void)
 3640           ; {
 3640                   .dbline 1321
 3640           ;   if(DisPage!=ICCARDPAGE) return;
 3640 80910000          lds R24,_DisPage
 3644 8131              cpi R24,17
 3646 09F0              breq L789
 3648           X332:
 3648                   .dbline 1321
 3648 2EC0              xjmp L788
 364A           L789:
 364A                   .dbline 1322
 364A           ;   KeyID=GetKeyID(CardSet_Key,3); 
 364A 23E0              ldi R18,3
 364C 00E0              ldi R16,<_CardSet_Key
 364E 10E0              ldi R17,>_CardSet_Key
 3650 0E949F03          xcall _GetKeyID
 3654 00930000          sts _KeyID,R16
 3658                   .dbline 1323
 3658           ;   if(KeyID<2)
 3658 802F              mov R24,R16
 365A 0230              cpi R16,2
 365C 20F5              brsh L791
 365E           X333:
 365E                   .dbline 1324
 365E           ;   {
 365E                   .dbline 1325
 365E           ;     CardSet=KeyID;
 365E 282E              mov R2,R24
 3660 20920000          sts _CardSet,R2
 3664                   .dbline 1326
 3664           ;       cut_pic(0,18,CardSet*271,422,269+CardSet*271,512,300,250);
 3664 8AEF              ldi R24,250
 3666 90E0              ldi R25,0
 3668 9B87              std y+11,R25
 366A 8A87              std y+10,R24
 366C 8CE2              ldi R24,300
 366E 91E0              ldi R25,1
 3670 9987              std y+9,R25
 3672 8887              std y+8,R24
 3674 80E0              ldi R24,512
 3676 92E0              ldi R25,2
 3678 9F83              std y+7,R25
 367A 8E83              std y+6,R24
 367C 222D              mov R18,R2
 367E 3327              clr R19
 3680 0FE0              ldi R16,271
 3682 11E0              ldi R17,1
 3684 0E940000          xcall empy16s
 3688 C801              movw R24,R16
 368A 835F              subi R24,243  ; offset = 269
 368C 9E4F              sbci R25,254
 368E 9D83              std y+5,R25
 3690 8C83              std y+4,R24
 3692 86EA              ldi R24,422
 3694 91E0              ldi R25,1
 3696 9B83              std y+3,R25
 3698 8A83              std y+2,R24
 369A 1983              std y+1,R17
 369C 0883              std y+0,R16
 369E 22E1              ldi R18,18
 36A0 0027              clr R16
 36A2 0E940000          xcall _cut_pic
 36A6                   .dbline 1327
 36A6           ;   }
 36A6           L791:
 36A6                   .dbline -2
 36A6           L788:
 36A6                   .dbline 0 ; func end
 36A6 2C96              adiw R28,12
 36A8 0895              ret
 36AA                   .dbend
 36AA                   .dbfunc e CardSetKeyUp _CardSetKeyUp fV
                        .even
 36AA           _CardSetKeyUp::
 36AA                   .dbline -1
 36AA                   .dbline 1330
 36AA           ; }
 36AA           ; void CardSetKeyUp(void)
 36AA           ; {
 36AA                   .dbline 1331
 36AA           ;   if(DisPage!=ICCARDPAGE) return;
 36AA 80910000          lds R24,_DisPage
 36AE 8131              cpi R24,17
 36B0 09F0              breq L794
 36B2           X334:
 36B2                   .dbline 1331
 36B2 0AC0              xjmp L793
 36B4           L794:
 36B4                   .dbline 1332
 36B4           ;   if(KeyID==2)
 36B4 80910000          lds R24,_KeyID
 36B8 8230              cpi R24,2
 36BA 31F4              brne L796
 36BC           X335:
 36BC                   .dbline 1333
 36BC           ;   {
 36BC                   .dbline 1335
 36BC           ;     //EEPROMWriteBytes(CardSetAddr,&CardSet,1);
 36BC           ;     dis_pic(19);
 36BC 03E1              ldi R16,19
 36BE 0E940000          xcall _dis_pic
 36C2                   .dbline 1336
 36C2           ;     DisPage=SYSTEMPAGE;
 36C2 8AE0              ldi R24,10
 36C4 80930000          sts _DisPage,R24
 36C8                   .dbline 1337
 36C8           ;   }
 36C8           L796:
 36C8                   .dbline -2
 36C8           L793:
 36C8                   .dbline 0 ; func end
 36C8 0895              ret
 36CA                   .dbend
 36CA                   .dbfunc e PassSetKeyDown _PassSetKeyDown fV
                        .even
 36CA           _PassSetKeyDown::
 36CA 0E940000          xcall push_xgset300C
 36CE 2C97              sbiw R28,12
 36D0                   .dbline -1
 36D0                   .dbline 1340
 36D0           ; }
 36D0           ; void PassSetKeyDown(void)
 36D0           ; {
 36D0                   .dbline 1341
 36D0           ;   if(DisPage!=PASSSETPAGE) return;
 36D0 80910000          lds R24,_DisPage
 36D4 8331              cpi R24,19
 36D6 09F0              breq L799
 36D8           X336:
 36D8                   .dbline 1341
 36D8 60C2              xjmp L798
 36DA           L799:
 36DA                   .dbline 1342
 36DA           ;   KeyID=GetKeyID(Time_Key,13); 
 36DA 2DE0              ldi R18,13
 36DC 00E0              ldi R16,<_Time_Key
 36DE 10E0              ldi R17,>_Time_Key
 36E0 0E949F03          xcall _GetKeyID
 36E4 00930000          sts _KeyID,R16
 36E8                   .dbline 1343
 36E8           ;   if((KeyID<10)&&(text_ptr<6))
 36E8 0A30              cpi R16,10
 36EA 08F0              brlo X351
 36EC 75C0              xjmp L801
 36EE           X351:
 36EE           X337:
 36EE 80910000          lds R24,_text_ptr
 36F2 8630              cpi R24,6
 36F4 08F0              brlo X352
 36F6 70C0              xjmp L801
 36F8           X352:
 36F8           X338:
 36F8                   .dbline 1344
 36F8           ;   {
 36F8                   .dbline 1345
 36F8           ;     cut_pic(0,27,Time_Key[KeyID].XS-29,Time_Key[KeyID].YS-100,Time_Key[KeyID].XE-29,Time_Key[KeyID].YE-100,Time_Key[KeyID].XS,Time_Key[KeyID].YS);
 36F8 202E              mov R2,R16
 36FA 3324              clr R3
 36FC 220C              lsl R2
 36FE 331C              rol R3
 3700 220C              lsl R2
 3702 331C              rol R3
 3704 220C              lsl R2
 3706 331C              rol R3
 3708 2101              movw R4,R2
 370A 80E0              ldi R24,<_Time_Key+2
 370C 90E0              ldi R25,>_Time_Key+2
 370E F101              movw R30,R2
 3710 E80F              add R30,R24
 3712 F91F              adc R31,R25
 3714 2790              elpm R2,Z+
 3716 3690              elpm R3,Z
 3718 3B86              std y+11,R3
 371A 2A86              std y+10,R2
 371C 80E0              ldi R24,<_Time_Key
 371E 90E0              ldi R25,>_Time_Key
 3720 F201              movw R30,R4
 3722 E80F              add R30,R24
 3724 F91F              adc R31,R25
 3726 4791              elpm R20,Z+
 3728 5691              elpm R21,Z
 372A 5987              std y+9,R21
 372C 4887              std y+8,R20
 372E 80E0              ldi R24,<_Time_Key+6
 3730 90E0              ldi R25,>_Time_Key+6
 3732 F201              movw R30,R4
 3734 E80F              add R30,R24
 3736 F91F              adc R31,R25
 3738 8791              elpm R24,Z+
 373A 9691              elpm R25,Z
 373C 8456              subi R24,100
 373E 9040              sbci R25,0
 3740 9F83              std y+7,R25
 3742 8E83              std y+6,R24
 3744 80E0              ldi R24,<_Time_Key+4
 3746 90E0              ldi R25,>_Time_Key+4
 3748 F201              movw R30,R4
 374A E80F              add R30,R24
 374C F91F              adc R31,R25
 374E 8791              elpm R24,Z+
 3750 9691              elpm R25,Z
 3752 4D97              sbiw R24,29
 3754 9D83              std y+5,R25
 3756 8C83              std y+4,R24
 3758 80E0              ldi R24,<_Time_Key+2
 375A 90E0              ldi R25,>_Time_Key+2
 375C F201              movw R30,R4
 375E E80F              add R30,R24
 3760 F91F              adc R31,R25
 3762 8791              elpm R24,Z+
 3764 9691              elpm R25,Z
 3766 8456              subi R24,100
 3768 9040              sbci R25,0
 376A 9B83              std y+3,R25
 376C 8A83              std y+2,R24
 376E CA01              movw R24,R20
 3770 4D97              sbiw R24,29
 3772 9983              std y+1,R25
 3774 8883              std y+0,R24
 3776 2BE1              ldi R18,27
 3778 0027              clr R16
 377A 0E940000          xcall _cut_pic
 377E                   .dbline 1346
 377E           ;       print_texts(335+text_ptr*12,150,0,0xD1,2,0x04bb,0xffff,&Text[7]);
 377E 80E0              ldi R24,<_Text+7
 3780 90E0              ldi R25,>_Text+7
 3782 9B87              std y+11,R25
 3784 8A87              std y+10,R24
 3786 8FEF              ldi R24,65535
 3788 9FEF              ldi R25,255
 378A 9987              std y+9,R25
 378C 8887              std y+8,R24
 378E 8BEB              ldi R24,1211
 3790 94E0              ldi R25,4
 3792 9F83              std y+7,R25
 3794 8E83              std y+6,R24
 3796 82E0              ldi R24,2
 3798 8C83              std y+4,R24
 379A 81ED              ldi R24,209
 379C 8A83              std y+2,R24
 379E 2224              clr R2
 37A0 2882              std y+0,R2
 37A2 26E9              ldi R18,150
 37A4 30E0              ldi R19,0
 37A6 10910000          lds R17,_text_ptr
 37AA 0CE0              ldi R16,12
 37AC 0103              mulsu R16,R17
 37AE 8001              movw R16,R0
 37B0 015B              subi R16,177  ; offset = 335
 37B2 1E4F              sbci R17,254
 37B4 0E940000          xcall _print_texts
 37B8                   .dbline 1347
 37B8           ;     Text[text_ptr]=KeyID;
 37B8 80E0              ldi R24,<_Text
 37BA 90E0              ldi R25,>_Text
 37BC E0910000          lds R30,_text_ptr
 37C0 FF27              clr R31
 37C2 E80F              add R30,R24
 37C4 F91F              adc R31,R25
 37C6 20900000          lds R2,_KeyID
 37CA 2082              std z+0,R2
 37CC                   .dbline 1348
 37CC           ;       text_ptr++;
 37CC 80910000          lds R24,_text_ptr
 37D0 8F5F              subi R24,255    ; addi 1
 37D2 80930000          sts _text_ptr,R24
 37D6                   .dbline 1349
 37D6           ;   }
 37D6 E1C1              xjmp L802
 37D8           L801:
 37D8                   .dbline 1350
 37D8           ;   else if((KeyID==10)&&(text_ptr>0))
 37D8 80910000          lds R24,_KeyID
 37DC 8A30              cpi R24,10
 37DE 09F0              breq X353
 37E0 74C0              xjmp L808
 37E2           X353:
 37E2           X339:
 37E2 80E0              ldi R24,0
 37E4 20900000          lds R2,_text_ptr
 37E8 8215              cp R24,R2
 37EA 08F0              brlo X354
 37EC 6EC0              xjmp L808
 37EE           X354:
 37EE           X340:
 37EE                   .dbline 1351
 37EE           ;   {
 37EE                   .dbline 1352
 37EE           ;     cut_pic(0,27,Time_Key[KeyID].XS-29,Time_Key[KeyID].YS-100,Time_Key[KeyID].XE-29,Time_Key[KeyID].YE-100,Time_Key[KeyID].XS,Time_Key[KeyID].YS);
 37EE A0900000          lds R10,_KeyID
 37F2 BB24              clr R11
 37F4 AA0C              lsl R10
 37F6 BB1C              rol R11
 37F8 AA0C              lsl R10
 37FA BB1C              rol R11
 37FC AA0C              lsl R10
 37FE BB1C              rol R11
 3800 80E0              ldi R24,<_Time_Key+2
 3802 90E0              ldi R25,>_Time_Key+2
 3804 F501              movw R30,R10
 3806 E80F              add R30,R24
 3808 F91F              adc R31,R25
 380A 2790              elpm R2,Z+
 380C 3690              elpm R3,Z
 380E 3B86              std y+11,R3
 3810 2A86              std y+10,R2
 3812 80E0              ldi R24,<_Time_Key
 3814 90E0              ldi R25,>_Time_Key
 3816 F501              movw R30,R10
 3818 E80F              add R30,R24
 381A F91F              adc R31,R25
 381C 4791              elpm R20,Z+
 381E 5691              elpm R21,Z
 3820 5987              std y+9,R21
 3822 4887              std y+8,R20
 3824 80E0              ldi R24,<_Time_Key+6
 3826 90E0              ldi R25,>_Time_Key+6
 3828 F501              movw R30,R10
 382A E80F              add R30,R24
 382C F91F              adc R31,R25
 382E 8791              elpm R24,Z+
 3830 9691              elpm R25,Z
 3832 8456              subi R24,100
 3834 9040              sbci R25,0
 3836 9F83              std y+7,R25
 3838 8E83              std y+6,R24
 383A 80E0              ldi R24,<_Time_Key+4
 383C 90E0              ldi R25,>_Time_Key+4
 383E F501              movw R30,R10
 3840 E80F              add R30,R24
 3842 F91F              adc R31,R25
 3844 8791              elpm R24,Z+
 3846 9691              elpm R25,Z
 3848 4D97              sbiw R24,29
 384A 9D83              std y+5,R25
 384C 8C83              std y+4,R24
 384E 80E0              ldi R24,<_Time_Key+2
 3850 90E0              ldi R25,>_Time_Key+2
 3852 F501              movw R30,R10
 3854 E80F              add R30,R24
 3856 F91F              adc R31,R25
 3858 8791              elpm R24,Z+
 385A 9691              elpm R25,Z
 385C 8456              subi R24,100
 385E 9040              sbci R25,0
 3860 9B83              std y+3,R25
 3862 8A83              std y+2,R24
 3864 CA01              movw R24,R20
 3866 4D97              sbiw R24,29
 3868 9983              std y+1,R25
 386A 8883              std y+0,R24
 386C 2BE1              ldi R18,27
 386E 0027              clr R16
 3870 0E940000          xcall _cut_pic
 3874                   .dbline 1353
 3874           ;     text_ptr--;
 3874 80910000          lds R24,_text_ptr
 3878 8150              subi R24,1
 387A 80930000          sts _text_ptr,R24
 387E                   .dbline 1354
 387E           ;       Text[text_ptr]=0;
 387E 80E0              ldi R24,<_Text
 3880 90E0              ldi R25,>_Text
 3882 E0910000          lds R30,_text_ptr
 3886 FF27              clr R31
 3888 E80F              add R30,R24
 388A F91F              adc R31,R25
 388C 2224              clr R2
 388E 2082              std z+0,R2
 3890                   .dbline 1355
 3890           ;       print_texts(335+text_ptr*12,150,0,0xD1,2,0x04bb,0xffff,&Text[9]);
 3890 80E0              ldi R24,<_Text+9
 3892 90E0              ldi R25,>_Text+9
 3894 9B87              std y+11,R25
 3896 8A87              std y+10,R24
 3898 8FEF              ldi R24,65535
 389A 9FEF              ldi R25,255
 389C 9987              std y+9,R25
 389E 8887              std y+8,R24
 38A0 8BEB              ldi R24,1211
 38A2 94E0              ldi R25,4
 38A4 9F83              std y+7,R25
 38A6 8E83              std y+6,R24
 38A8 82E0              ldi R24,2
 38AA 8C83              std y+4,R24
 38AC 81ED              ldi R24,209
 38AE 8A83              std y+2,R24
 38B0 2882              std y+0,R2
 38B2 26E9              ldi R18,150
 38B4 30E0              ldi R19,0
 38B6 10910000          lds R17,_text_ptr
 38BA 0CE0              ldi R16,12
 38BC 0103              mulsu R16,R17
 38BE 8001              movw R16,R0
 38C0 015B              subi R16,177  ; offset = 335
 38C2 1E4F              sbci R17,254
 38C4 0E940000          xcall _print_texts
 38C8                   .dbline 1356
 38C8           ;   }
 38C8 68C1              xjmp L809
 38CA           L808:
 38CA                   .dbline 1357
 38CA           ;   else if((KeyID==11)&&(text_ptr==6))
 38CA 80910000          lds R24,_KeyID
 38CE 8B30              cpi R24,11
 38D0 09F0              breq X355
 38D2 1CC1              xjmp L815
 38D4           X355:
 38D4           X341:
 38D4 80910000          lds R24,_text_ptr
 38D8 8630              cpi R24,6
 38DA 09F0              breq X356
 38DC 17C1              xjmp L815
 38DE           X356:
 38DE           X342:
 38DE                   .dbline 1358
 38DE           ;   {
 38DE                   .dbline 1359
 38DE           ;     cut_pic(0,27,Time_Key[KeyID].XS-29,Time_Key[KeyID].YS-100,Time_Key[KeyID].XE-29,Time_Key[KeyID].YE-100,Time_Key[KeyID].XS,Time_Key[KeyID].YS);
 38DE A0900000          lds R10,_KeyID
 38E2 BB24              clr R11
 38E4 AA0C              lsl R10
 38E6 BB1C              rol R11
 38E8 AA0C              lsl R10
 38EA BB1C              rol R11
 38EC AA0C              lsl R10
 38EE BB1C              rol R11
 38F0 80E0              ldi R24,<_Time_Key+2
 38F2 90E0              ldi R25,>_Time_Key+2
 38F4 F501              movw R30,R10
 38F6 E80F              add R30,R24
 38F8 F91F              adc R31,R25
 38FA 2790              elpm R2,Z+
 38FC 3690              elpm R3,Z
 38FE 3B86              std y+11,R3
 3900 2A86              std y+10,R2
 3902 80E0              ldi R24,<_Time_Key
 3904 90E0              ldi R25,>_Time_Key
 3906 F501              movw R30,R10
 3908 E80F              add R30,R24
 390A F91F              adc R31,R25
 390C 4791              elpm R20,Z+
 390E 5691              elpm R21,Z
 3910 5987              std y+9,R21
 3912 4887              std y+8,R20
 3914 80E0              ldi R24,<_Time_Key+6
 3916 90E0              ldi R25,>_Time_Key+6
 3918 F501              movw R30,R10
 391A E80F              add R30,R24
 391C F91F              adc R31,R25
 391E 8791              elpm R24,Z+
 3920 9691              elpm R25,Z
 3922 8456              subi R24,100
 3924 9040              sbci R25,0
 3926 9F83              std y+7,R25
 3928 8E83              std y+6,R24
 392A 80E0              ldi R24,<_Time_Key+4
 392C 90E0              ldi R25,>_Time_Key+4
 392E F501              movw R30,R10
 3930 E80F              add R30,R24
 3932 F91F              adc R31,R25
 3934 8791              elpm R24,Z+
 3936 9691              elpm R25,Z
 3938 4D97              sbiw R24,29
 393A 9D83              std y+5,R25
 393C 8C83              std y+4,R24
 393E 80E0              ldi R24,<_Time_Key+2
 3940 90E0              ldi R25,>_Time_Key+2
 3942 F501              movw R30,R10
 3944 E80F              add R30,R24
 3946 F91F              adc R31,R25
 3948 8791              elpm R24,Z+
 394A 9691              elpm R25,Z
 394C 8456              subi R24,100
 394E 9040              sbci R25,0
 3950 9B83              std y+3,R25
 3952 8A83              std y+2,R24
 3954 CA01              movw R24,R20
 3956 4D97              sbiw R24,29
 3958 9983              std y+1,R25
 395A 8883              std y+0,R24
 395C 2BE1              ldi R18,27
 395E 0027              clr R16
 3960 0E940000          xcall _cut_pic
 3964                   .dbline 1360
 3964           ;       if(Text[11]==0)
 3964 20900B00          lds R2,_Text+11
 3968 2220              tst R2
 396A 09F0              breq X357
 396C 47C0              xjmp L821
 396E           X357:
 396E           X343:
 396E                   .dbline 1361
 396E           ;       {
 396E                   .dbline 1362
 396E           ;         PasswordTab[0]=Text[0];
 396E 20900000          lds R2,_Text
 3972 20920000          sts _PasswordTab,R2
 3976                   .dbline 1363
 3976           ;         PasswordTab[1]=Text[1];
 3976 20900100          lds R2,_Text+1
 397A 20920100          sts _PasswordTab+1,R2
 397E                   .dbline 1364
 397E           ;         PasswordTab[2]=Text[2];
 397E 20900200          lds R2,_Text+2
 3982 20920200          sts _PasswordTab+2,R2
 3986                   .dbline 1365
 3986           ;         PasswordTab[3]=Text[3];
 3986 20900300          lds R2,_Text+3
 398A 20920300          sts _PasswordTab+3,R2
 398E                   .dbline 1366
 398E           ;         PasswordTab[4]=Text[4];
 398E 20900400          lds R2,_Text+4
 3992 20920400          sts _PasswordTab+4,R2
 3996                   .dbline 1367
 3996           ;         PasswordTab[5]=Text[5];
 3996 20900500          lds R2,_Text+5
 399A 20920500          sts _PasswordTab+5,R2
 399E                   .dbline 1368
 399E           ;         text_ptr=0;
 399E 2224              clr R2
 39A0 20920000          sts _text_ptr,R2
 39A4                   .dbline 1369
 39A4           ;         Text[0]=' ';
 39A4 80E2              ldi R24,32
 39A6 80930000          sts _Text,R24
 39AA                   .dbline 1370
 39AA           ;         Text[1]=' ';
 39AA 80930100          sts _Text+1,R24
 39AE                   .dbline 1371
 39AE           ;         Text[2]=' ';
 39AE 80930200          sts _Text+2,R24
 39B2                   .dbline 1372
 39B2           ;         Text[3]=' ';
 39B2 80930300          sts _Text+3,R24
 39B6                   .dbline 1373
 39B6           ;         Text[4]=' ';
 39B6 80930400          sts _Text+4,R24
 39BA                   .dbline 1374
 39BA           ;         Text[5]=' ';
 39BA 80930500          sts _Text+5,R24
 39BE                   .dbline 1375
 39BE           ;         Text[11]=1;
 39BE 81E0              ldi R24,1
 39C0 80930B00          sts _Text+11,R24
 39C4                   .dbline 1376
 39C4           ;         print_texts(335+text_ptr*12,150,0,0xD1,2,0x04bb,0xffff,Text);
 39C4 80E0              ldi R24,<_Text
 39C6 90E0              ldi R25,>_Text
 39C8 9B87              std y+11,R25
 39CA 8A87              std y+10,R24
 39CC 8FEF              ldi R24,65535
 39CE 9FEF              ldi R25,255
 39D0 9987              std y+9,R25
 39D2 8887              std y+8,R24
 39D4 8BEB              ldi R24,1211
 39D6 94E0              ldi R25,4
 39D8 9F83              std y+7,R25
 39DA 8E83              std y+6,R24
 39DC 82E0              ldi R24,2
 39DE 8C83              std y+4,R24
 39E0 81ED              ldi R24,209
 39E2 8A83              std y+2,R24
 39E4 2882              std y+0,R2
 39E6 26E9              ldi R18,150
 39E8 30E0              ldi R19,0
 39EA 122D              mov R17,R2
 39EC 0CE0              ldi R16,12
 39EE 0103              mulsu R16,R17
 39F0 8001              movw R16,R0
 39F2 015B              subi R16,177  ; offset = 335
 39F4 1E4F              sbci R17,254
 39F6 0E940000          xcall _print_texts
 39FA                   .dbline 1377
 39FA           ;       }
 39FA CFC0              xjmp L816
 39FC           L821:
 39FC                   .dbline 1379
 39FC           ;       else
 39FC           ;       {
 39FC                   .dbline 1380
 39FC           ;         if((Text[0]==PasswordTab[0])&&(Text[1]==PasswordTab[1])&&(Text[2]==PasswordTab[2])&&(Text[3]==PasswordTab[3])&&(Text[4]==PasswordTab[4])&&(Text[5]==PasswordTab[5]))
 39FC 20900000          lds R2,_PasswordTab
 3A00 30900000          lds R3,_Text
 3A04 3214              cp R3,R2
 3A06 09F0              breq X358
 3A08 4EC0              xjmp L840
 3A0A           X358:
 3A0A           X344:
 3A0A 20900100          lds R2,_PasswordTab+1
 3A0E 30900100          lds R3,_Text+1
 3A12 3214              cp R3,R2
 3A14 09F0              breq X359
 3A16 47C0              xjmp L840
 3A18           X359:
 3A18           X345:
 3A18 20900200          lds R2,_PasswordTab+2
 3A1C 30900200          lds R3,_Text+2
 3A20 3214              cp R3,R2
 3A22 09F0              breq X360
 3A24 40C0              xjmp L840
 3A26           X360:
 3A26           X346:
 3A26 20900300          lds R2,_PasswordTab+3
 3A2A 30900300          lds R3,_Text+3
 3A2E 3214              cp R3,R2
 3A30 D1F5              brne L840
 3A32           X347:
 3A32 20900400          lds R2,_PasswordTab+4
 3A36 30900400          lds R3,_Text+4
 3A3A 3214              cp R3,R2
 3A3C A1F5              brne L840
 3A3E           X348:
 3A3E 20900500          lds R2,_PasswordTab+5
 3A42 30900500          lds R3,_Text+5
 3A46 3214              cp R3,R2
 3A48 71F5              brne L840
 3A4A           X349:
 3A4A                   .dbline 1381
 3A4A           ;         {
 3A4A                   .dbline 1383
 3A4A           ;           //EEPROMWriteBytes(PasswordAddr,&PasswordTab,6);
 3A4A           ;                 text_ptr=0;
 3A4A 2224              clr R2
 3A4C 20920000          sts _text_ptr,R2
 3A50                   .dbline 1384
 3A50           ;           Text[0]='O';
 3A50 8FE4              ldi R24,79
 3A52 80930000          sts _Text,R24
 3A56                   .dbline 1385
 3A56           ;           Text[1]='K';
 3A56 8BE4              ldi R24,75
 3A58 80930100          sts _Text+1,R24
 3A5C                   .dbline 1386
 3A5C           ;           Text[2]='.';
 3A5C 8EE2              ldi R24,46
 3A5E 80930200          sts _Text+2,R24
 3A62                   .dbline 1387
 3A62           ;           Text[3]='.';
 3A62 80930300          sts _Text+3,R24
 3A66                   .dbline 1388
 3A66           ;           Text[4]='.';
 3A66 80930400          sts _Text+4,R24
 3A6A                   .dbline 1389
 3A6A           ;           Text[5]='.';   
 3A6A 80930500          sts _Text+5,R24
 3A6E                   .dbline 1390
 3A6E           ;           print_texts(335+text_ptr*12,150,0,0xD1,2,0x04bb,0xffff,Text);
 3A6E 80E0              ldi R24,<_Text
 3A70 90E0              ldi R25,>_Text
 3A72 9B87              std y+11,R25
 3A74 8A87              std y+10,R24
 3A76 8FEF              ldi R24,65535
 3A78 9FEF              ldi R25,255
 3A7A 9987              std y+9,R25
 3A7C 8887              std y+8,R24
 3A7E 8BEB              ldi R24,1211
 3A80 94E0              ldi R25,4
 3A82 9F83              std y+7,R25
 3A84 8E83              std y+6,R24
 3A86 82E0              ldi R24,2
 3A88 8C83              std y+4,R24
 3A8A 81ED              ldi R24,209
 3A8C 8A83              std y+2,R24
 3A8E 2882              std y+0,R2
 3A90 26E9              ldi R18,150
 3A92 30E0              ldi R19,0
 3A94 122D              mov R17,R2
 3A96 0CE0              ldi R16,12
 3A98 0103              mulsu R16,R17
 3A9A 8001              movw R16,R0
 3A9C 015B              subi R16,177  ; offset = 335
 3A9E 1E4F              sbci R17,254
 3AA0 0E940000          xcall _print_texts
 3AA4                   .dbline 1391
 3AA4           ;         }
 3AA4 2FC0              xjmp L841
 3AA6           L840:
 3AA6                   .dbline 1393
 3AA6           ;         else
 3AA6           ;         {
 3AA6                   .dbline 1395
 3AA6           ;           //EEPROMReadBytes(PasswordAddr,&PasswordTab,6);
 3AA6           ;               text_ptr=0;
 3AA6 2224              clr R2
 3AA8 20920000          sts _text_ptr,R2
 3AAC                   .dbline 1396
 3AAC           ;           Text[0]='E';
 3AAC 85E4              ldi R24,69
 3AAE 80930000          sts _Text,R24
 3AB2                   .dbline 1397
 3AB2           ;           Text[1]='r';
 3AB2 82E7              ldi R24,114
 3AB4 80930100          sts _Text+1,R24
 3AB8                   .dbline 1398
 3AB8           ;           Text[2]='r';
 3AB8 80930200          sts _Text+2,R24
 3ABC                   .dbline 1399
 3ABC           ;           Text[3]='o';
 3ABC 8FE6              ldi R24,111
 3ABE 80930300          sts _Text+3,R24
 3AC2                   .dbline 1400
 3AC2           ;           Text[4]='r';
 3AC2 82E7              ldi R24,114
 3AC4 80930400          sts _Text+4,R24
 3AC8                   .dbline 1401
 3AC8           ;           Text[5]='!';
 3AC8 81E2              ldi R24,33
 3ACA 80930500          sts _Text+5,R24
 3ACE                   .dbline 1402
 3ACE           ;           print_texts(335+text_ptr*12,150,0,0xD1,2,0x04bb,0xffff,Text);
 3ACE 80E0              ldi R24,<_Text
 3AD0 90E0              ldi R25,>_Text
 3AD2 9B87              std y+11,R25
 3AD4 8A87              std y+10,R24
 3AD6 8FEF              ldi R24,65535
 3AD8 9FEF              ldi R25,255
 3ADA 9987              std y+9,R25
 3ADC 8887              std y+8,R24
 3ADE 8BEB              ldi R24,1211
 3AE0 94E0              ldi R25,4
 3AE2 9F83              std y+7,R25
 3AE4 8E83              std y+6,R24
 3AE6 82E0              ldi R24,2
 3AE8 8C83              std y+4,R24
 3AEA 81ED              ldi R24,209
 3AEC 8A83              std y+2,R24
 3AEE 2882              std y+0,R2
 3AF0 26E9              ldi R18,150
 3AF2 30E0              ldi R19,0
 3AF4 122D              mov R17,R2
 3AF6 0CE0              ldi R16,12
 3AF8 0103              mulsu R16,R17
 3AFA 8001              movw R16,R0
 3AFC 015B              subi R16,177  ; offset = 335
 3AFE 1E4F              sbci R17,254
 3B00 0E940000          xcall _print_texts
 3B04                   .dbline 1403
 3B04           ;         }
 3B04           L841:
 3B04                   .dbline 1404
 3B04           ;         Text[11]=2;
 3B04 82E0              ldi R24,2
 3B06 80930B00          sts _Text+11,R24
 3B0A                   .dbline 1405
 3B0A           ;       }
 3B0A                   .dbline 1406
 3B0A           ;   }
 3B0A 47C0              xjmp L816
 3B0C           L815:
 3B0C                   .dbline 1407
 3B0C           ;   else if(KeyID==12)
 3B0C 80910000          lds R24,_KeyID
 3B10 8C30              cpi R24,12
 3B12 09F0              breq X361
 3B14 42C0              xjmp L863
 3B16           X361:
 3B16           X350:
 3B16                   .dbline 1408
 3B16           ;   {
 3B16                   .dbline 1409
 3B16           ;     cut_pic(0,27,Time_Key[KeyID].XS-29,Time_Key[KeyID].YS-100,Time_Key[KeyID].XE-29,Time_Key[KeyID].YE-100,Time_Key[KeyID].XS,Time_Key[KeyID].YS); 
 3B16 A82E              mov R10,R24
 3B18 BB24              clr R11
 3B1A AA0C              lsl R10
 3B1C BB1C              rol R11
 3B1E AA0C              lsl R10
 3B20 BB1C              rol R11
 3B22 AA0C              lsl R10
 3B24 BB1C              rol R11
 3B26 80E0              ldi R24,<_Time_Key+2
 3B28 90E0              ldi R25,>_Time_Key+2
 3B2A F501              movw R30,R10
 3B2C E80F              add R30,R24
 3B2E F91F              adc R31,R25
 3B30 2790              elpm R2,Z+
 3B32 3690              elpm R3,Z
 3B34 3B86              std y+11,R3
 3B36 2A86              std y+10,R2
 3B38 80E0              ldi R24,<_Time_Key
 3B3A 90E0              ldi R25,>_Time_Key
 3B3C F501              movw R30,R10
 3B3E E80F              add R30,R24
 3B40 F91F              adc R31,R25
 3B42 4791              elpm R20,Z+
 3B44 5691              elpm R21,Z
 3B46 5987              std y+9,R21
 3B48 4887              std y+8,R20
 3B4A 80E0              ldi R24,<_Time_Key+6
 3B4C 90E0              ldi R25,>_Time_Key+6
 3B4E F501              movw R30,R10
 3B50 E80F              add R30,R24
 3B52 F91F              adc R31,R25
 3B54 8791              elpm R24,Z+
 3B56 9691              elpm R25,Z
 3B58 8456              subi R24,100
 3B5A 9040              sbci R25,0
 3B5C 9F83              std y+7,R25
 3B5E 8E83              std y+6,R24
 3B60 80E0              ldi R24,<_Time_Key+4
 3B62 90E0              ldi R25,>_Time_Key+4
 3B64 F501              movw R30,R10
 3B66 E80F              add R30,R24
 3B68 F91F              adc R31,R25
 3B6A 8791              elpm R24,Z+
 3B6C 9691              elpm R25,Z
 3B6E 4D97              sbiw R24,29
 3B70 9D83              std y+5,R25
 3B72 8C83              std y+4,R24
 3B74 80E0              ldi R24,<_Time_Key+2
 3B76 90E0              ldi R25,>_Time_Key+2
 3B78 F501              movw R30,R10
 3B7A E80F              add R30,R24
 3B7C F91F              adc R31,R25
 3B7E 8791              elpm R24,Z+
 3B80 9691              elpm R25,Z
 3B82 8456              subi R24,100
 3B84 9040              sbci R25,0
 3B86 9B83              std y+3,R25
 3B88 8A83              std y+2,R24
 3B8A CA01              movw R24,R20
 3B8C 4D97              sbiw R24,29
 3B8E 9983              std y+1,R25
 3B90 8883              std y+0,R24
 3B92 2BE1              ldi R18,27
 3B94 0027              clr R16
 3B96 0E940000          xcall _cut_pic
 3B9A                   .dbline 1410
 3B9A           ;   }
 3B9A           L863:
 3B9A           L816:
 3B9A           L809:
 3B9A           L802:
 3B9A                   .dbline -2
 3B9A           L798:
 3B9A                   .dbline 0 ; func end
 3B9A 2C96              adiw R28,12
 3B9C 0C940000          xjmp pop_xgset300C
 3BA0                   .dbend
 3BA0                   .dbfunc e PassSetKeyUp _PassSetKeyUp fV
                        .even
 3BA0           _PassSetKeyUp::
 3BA0 2C97              sbiw R28,12
 3BA2                   .dbline -1
 3BA2                   .dbline 1413
 3BA2           ; } 
 3BA2           ; void PassSetKeyUp(void)
 3BA2           ; {
 3BA2                   .dbline 1414
 3BA2           ;   if(DisPage!=PASSSETPAGE) return;
 3BA2 80910000          lds R24,_DisPage
 3BA6 8331              cpi R24,19
 3BA8 09F0              breq L870
 3BAA           X362:
 3BAA                   .dbline 1414
 3BAA 37C0              xjmp L869
 3BAC           L870:
 3BAC                   .dbline 1415
 3BAC           ;   if(KeyID<12)
 3BAC 80910000          lds R24,_KeyID
 3BB0 8C30              cpi R24,12
 3BB2 D0F4              brsh L872
 3BB4           X363:
 3BB4                   .dbline 1416
 3BB4           ;   {
 3BB4                   .dbline 1417
 3BB4           ;     cut_pic(0,27,0,90,269,325,300,190);
 3BB4 8EEB              ldi R24,190
 3BB6 90E0              ldi R25,0
 3BB8 9B87              std y+11,R25
 3BBA 8A87              std y+10,R24
 3BBC 8CE2              ldi R24,300
 3BBE 91E0              ldi R25,1
 3BC0 9987              std y+9,R25
 3BC2 8887              std y+8,R24
 3BC4 85E4              ldi R24,69
 3BC6 9F83              std y+7,R25
 3BC8 8E83              std y+6,R24
 3BCA 8DE0              ldi R24,13
 3BCC 9D83              std y+5,R25
 3BCE 8C83              std y+4,R24
 3BD0 8AE5              ldi R24,90
 3BD2 90E0              ldi R25,0
 3BD4 9B83              std y+3,R25
 3BD6 8A83              std y+2,R24
 3BD8 2224              clr R2
 3BDA 3324              clr R3
 3BDC 3982              std y+1,R3
 3BDE 2882              std y+0,R2
 3BE0 2BE1              ldi R18,27
 3BE2 0027              clr R16
 3BE4 0E940000          xcall _cut_pic
 3BE8                   .dbline 1418
 3BE8           ;   }
 3BE8           L872:
 3BE8                   .dbline 1419
 3BE8           ;   if((KeyID==11)&&(Text[11]==2))
 3BE8 80910000          lds R24,_KeyID
 3BEC 8B30              cpi R24,11
 3BEE 59F4              brne L874
 3BF0           X364:
 3BF0 80910B00          lds R24,_Text+11
 3BF4 8230              cpi R24,2
 3BF6 39F4              brne L874
 3BF8           X365:
 3BF8                   .dbline 1420
 3BF8           ;   {
 3BF8                   .dbline 1421
 3BF8           ;     dis_pic(19);
 3BF8 03E1              ldi R16,19
 3BFA 0E940000          xcall _dis_pic
 3BFE                   .dbline 1422
 3BFE           ;       DisPage=SYSTEMPAGE;
 3BFE 8AE0              ldi R24,10
 3C00 80930000          sts _DisPage,R24
 3C04                   .dbline 1423
 3C04           ;   }
 3C04 0AC0              xjmp L875
 3C06           L874:
 3C06                   .dbline 1424
 3C06           ;   else if(KeyID==12)
 3C06 80910000          lds R24,_KeyID
 3C0A 8C30              cpi R24,12
 3C0C 31F4              brne L877
 3C0E           X366:
 3C0E                   .dbline 1425
 3C0E           ;   {
 3C0E                   .dbline 1426
 3C0E           ;     dis_pic(19);
 3C0E 03E1              ldi R16,19
 3C10 0E940000          xcall _dis_pic
 3C14                   .dbline 1427
 3C14           ;       DisPage=SYSTEMPAGE;
 3C14 8AE0              ldi R24,10
 3C16 80930000          sts _DisPage,R24
 3C1A                   .dbline 1428
 3C1A           ;   } 
 3C1A           L877:
 3C1A           L875:
 3C1A                   .dbline -2
 3C1A           L869:
 3C1A                   .dbline 0 ; func end
 3C1A 2C96              adiw R28,12
 3C1C 0895              ret
 3C1E                   .dbend
                        .area data(ram, con, rel)
 0007                   .dbfile E:\1.JD_Project\21.Android-360\1.Android-360Code\App\app.c
 0007           L880:
 0007                   .blkb 2
                        .area idata
 0007 FF00              .word 255
                        .area data(ram, con, rel)
 0009                   .dbfile E:\1.JD_Project\21.Android-360\1.Android-360Code\App\app.c
 0009           L881:
 0009                   .blkb 2
                        .area idata
 0009 0000              .word 0
                        .area data(ram, con, rel)
 000B                   .dbfile E:\1.JD_Project\21.Android-360\1.Android-360Code\App\app.c
                        .area text(rom, con, rel)
 3C1E                   .dbfile E:\1.JD_Project\21.Android-360\1.Android-360Code\App\app.c
 3C1E                   .dbfunc e HandpieceKey _HandpieceKey fV
 3C1E                   .dbsym s count L881 i
 3C1E                   .dbsym s ID L880 i
 3C1E           ;           buff -> y+1
                        .even
 3C1E           _HandpieceKey::
 3C1E 6197              sbiw R28,17
 3C20                   .dbline -1
 3C20                   .dbline 1431
 3C20           ; } 
 3C20           ; void HandpieceKey(void)//2号手柄键值处理 H
 3C20           ; {
 3C20                   .dbline 1436
 3C20           ;   unsigned char buff[16];
 3C20           ;   static unsigned ID=255;
 3C20           ;   static unsigned count=0;
 3C20           ;  // if(DisPage!=WORKPAGE) return;
 3C20           ;   if (MACHINE_STATE.HANDLE_ID==1) return;
 3C20 80910000          lds R24,_MACHINE_STATE
 3C24 8130              cpi R24,1
 3C26 09F4              brne L882
 3C28           X367:
 3C28                   .dbline 1436
 3C28 96C1              xjmp L879
 3C2A           L882:
 3C2A                   .dbline 1437
 3C2A           ;   if (MACHINE_STATE.HANDLE_ID==0) return;
 3C2A 20900000          lds R2,_MACHINE_STATE
 3C2E 2220              tst R2
 3C30 09F4              brne L884
 3C32           X368:
 3C32                   .dbline 1437
 3C32 91C1              xjmp L879
 3C34           L884:
 3C34                   .dbline 1438
 3C34           ;   if (MACHINE_STATE.HANDLE_ID>4)  return;
 3C34 84E0              ldi R24,4
 3C36 20900000          lds R2,_MACHINE_STATE
 3C3A 8215              cp R24,R2
 3C3C 08F4              brsh L886
 3C3E           X369:
 3C3E                   .dbline 1438
 3C3E 8BC1              xjmp L879
 3C40           L886:
 3C40                   .dbline 1440
 3C40           ;   
 3C40           ;   if(Hand_Event==KEY_NULL)
 3C40 20900000          lds R2,_Hand_Event
 3C44 2220              tst R2
 3C46 09F0              breq X408
 3C48 5FC0              xjmp L888
 3C4A           X408:
 3C4A           X370:
 3C4A                   .dbline 1441
 3C4A           ;   {
 3C4A                   .dbline 1442
 3C4A           ;     if((PIND&0x10)==0) HandID=1;
 3C4A 8499              sbic 0x10,4
 3C4C 04C0              rjmp L890
 3C4E           X371:
 3C4E                   .dbline 1442
 3C4E 81E0              ldi R24,1
 3C50 80930000          sts _HandID,R24
 3C54 1DC0              xjmp L891
 3C56           L890:
 3C56                   .dbline 1443
 3C56           ;     else if((PIND&0x20)==0)  HandID=3;
 3C56 8599              sbic 0x10,5
 3C58 04C0              rjmp L892
 3C5A           X372:
 3C5A                   .dbline 1443
 3C5A 83E0              ldi R24,3
 3C5C 80930000          sts _HandID,R24
 3C60 17C0              xjmp L893
 3C62           L892:
 3C62                   .dbline 1444
 3C62           ;     else if((PIND&0x40)==0)  HandID=4;
 3C62 8699              sbic 0x10,6
 3C64 04C0              rjmp L894
 3C66           X373:
 3C66                   .dbline 1444
 3C66 84E0              ldi R24,4
 3C68 80930000          sts _HandID,R24
 3C6C 11C0              xjmp L895
 3C6E           L894:
 3C6E                   .dbline 1445
 3C6E           ;     else if((PIND&0x80)==0)  HandID=2;
 3C6E 8799              sbic 0x10,7
 3C70 04C0              rjmp L896
 3C72           X374:
 3C72                   .dbline 1445
 3C72 82E0              ldi R24,2
 3C74 80930000          sts _HandID,R24
 3C78 0BC0              xjmp L897
 3C7A           L896:
 3C7A                   .dbline 1446
 3C7A           ;     else if((PING&0x01)==0)  HandID=0;
 3C7A 20906300          lds R2,99
 3C7E 20FC              sbrc R2,0
 3C80 04C0              rjmp L898
 3C82           X375:
 3C82                   .dbline 1446
 3C82 2224              clr R2
 3C84 20920000          sts _HandID,R2
 3C88 03C0              xjmp L899
 3C8A           L898:
 3C8A                   .dbline 1447
 3C8A           ;     else HandID=255;
 3C8A 8FEF              ldi R24,255
 3C8C 80930000          sts _HandID,R24
 3C90           L899:
 3C90           L897:
 3C90           L895:
 3C90           L893:
 3C90           L891:
 3C90                   .dbline 1448
 3C90           ;       if(ID!=HandID)
 3C90 20900000          lds R2,_HandID
 3C94 3324              clr R3
 3C96 40900700          lds R4,L880
 3C9A 50900800          lds R5,L880+1
 3C9E 4214              cp R4,R2
 3CA0 5304              cpc R5,R3
 3CA2 59F0              breq L900
 3CA4           X376:
 3CA4                   .dbline 1449
 3CA4           ;       {
 3CA4                   .dbline 1450
 3CA4           ;         ID=HandID;
 3CA4 3324              clr R3
 3CA6 30920800          sts L880+1,R3
 3CAA 20920700          sts L880,R2
 3CAE                   .dbline 1451
 3CAE           ;         count=0;
 3CAE 2224              clr R2
 3CB0 30920A00          sts L881+1,R3
 3CB4 20920900          sts L881,R2
 3CB8                   .dbline 1452
 3CB8           ;         return;
 3CB8 4EC1              xjmp L879
 3CBA           L900:
 3CBA                   .dbline 1454
 3CBA           ;       }
 3CBA           ;   if(HandID<5) count++;
 3CBA 80910000          lds R24,_HandID
 3CBE 8530              cpi R24,5
 3CC0 50F4              brsh L902
 3CC2           X377:
 3CC2                   .dbline 1454
 3CC2 80910900          lds R24,L881
 3CC6 90910A00          lds R25,L881+1
 3CCA 0196              adiw R24,1
 3CCC 90930A00          sts L881+1,R25
 3CD0 80930900          sts L881,R24
 3CD4 06C0              xjmp L903
 3CD6           L902:
 3CD6                   .dbline 1455
 3CD6           ;       else count=0;
 3CD6 2224              clr R2
 3CD8 3324              clr R3
 3CDA 30920A00          sts L881+1,R3
 3CDE 20920900          sts L881,R2
 3CE2           L903:
 3CE2                   .dbline 1456
 3CE2           ;       if(count>=5)
 3CE2 80910900          lds R24,L881
 3CE6 90910A00          lds R25,L881+1
 3CEA 8530              cpi R24,5
 3CEC E0E0              ldi R30,0
 3CEE 9E07              cpc R25,R30
 3CF0 08F4              brsh X409
 3CF2 31C1              xjmp L889
 3CF4           X409:
 3CF4           X378:
 3CF4                   .dbline 1457
 3CF4           ;       {
 3CF4                   .dbline 1458
 3CF4           ;         count=0;
 3CF4 2224              clr R2
 3CF6 3324              clr R3
 3CF8 30920A00          sts L881+1,R3
 3CFC 20920900          sts L881,R2
 3D00                   .dbline 1459
 3D00           ;         Hand_Event=KEY_DOWN;
 3D00 81E0              ldi R24,1
 3D02 80930000          sts _Hand_Event,R24
 3D06                   .dbline 1460
 3D06           ;       }
 3D06                   .dbline 1461
 3D06           ;   }
 3D06 27C1              xjmp L889
 3D08           L888:
 3D08                   .dbline 1462
 3D08           ;   else if(Hand_Event==KEY_DOWN)
 3D08 80910000          lds R24,_Hand_Event
 3D0C 8130              cpi R24,1
 3D0E 09F0              breq X410
 3D10 BCC0              xjmp L906
 3D12           X410:
 3D12           X379:
 3D12                   .dbline 1463
 3D12           ;   {
 3D12                   .dbline 1464
 3D12           ;       if(HandID<4)
 3D12 80910000          lds R24,_HandID
 3D16 8430              cpi R24,4
 3D18 08F0              brlo X411
 3D1A 4CC0              xjmp L908
 3D1C           X411:
 3D1C           X380:
 3D1C                   .dbline 1465
 3D1C           ;     {
 3D1C                   .dbline 1466
 3D1C           ;       Intensity[7]=HandID;
 3D1C 282E              mov R2,R24
 3D1E 20920700          sts _Intensity+7,R2
 3D22                   .dbline 1467
 3D22           ;       ModeSet();
 3D22 0E94E602          xcall _ModeSet
 3D26                   .dbline 1468
 3D26           ;     if(MACHINE_STATE.WORK_STATE==1)
 3D26 80910100          lds R24,_MACHINE_STATE+1
 3D2A 8130              cpi R24,1
 3D2C 99F4              brne L911
 3D2E           X381:
 3D2E                   .dbline 1469
 3D2E           ;         {
 3D2E                   .dbline 1470
 3D2E           ;           if(Intensity[8]==2)  BitClr(PORTG,4);//手柄工作指示灯
 3D2E 80910800          lds R24,_Intensity+8
 3D32 8230              cpi R24,2
 3D34 29F4              brne L914
 3D36           X382:
 3D36                   .dbline 1470
 3D36 80916500          lds R24,101
 3D3A 8F7E              andi R24,239
 3D3C 80936500          sts 101,R24
 3D40           L914:
 3D40                   .dbline 1471
 3D40           ;           if(Intensity[8]==3)  BitClr(PORTG,3);//手柄工作指示灯
 3D40 80910800          lds R24,_Intensity+8
 3D44 8330              cpi R24,3
 3D46 81F4              brne L912
 3D48           X383:
 3D48                   .dbline 1471
 3D48 80916500          lds R24,101
 3D4C 877F              andi R24,247
 3D4E 80936500          sts 101,R24
 3D52                   .dbline 1472
 3D52           ;         }
 3D52 0AC0              xjmp L912
 3D54           L911:
 3D54                   .dbline 1474
 3D54           ;         else
 3D54           ;         {
 3D54                   .dbline 1475
 3D54           ;           BitSet(PORTG,4);
 3D54 80916500          lds R24,101
 3D58 8061              ori R24,16
 3D5A 80936500          sts 101,R24
 3D5E                   .dbline 1476
 3D5E           ;           BitSet(PORTG,3);
 3D5E 80916500          lds R24,101
 3D62 8860              ori R24,8
 3D64 80936500          sts 101,R24
 3D68                   .dbline 1477
 3D68           ;         }
 3D68           L912:
 3D68                   .dbline 1478
 3D68           ;       buff[0] = MACHINE_STATE.HANDLE_ID-1;
 3D68 80910000          lds R24,_MACHINE_STATE
 3D6C 8150              subi R24,1
 3D6E 8983              std y+1,R24
 3D70                   .dbline 1479
 3D70           ;       buff[1] = Intensity[4];//负压等级
 3D70 20900400          lds R2,_Intensity+4
 3D74 2A82              std y+2,R2
 3D76                   .dbline 1480
 3D76           ;       buff[2] = Intensity[5];//吸气等级
 3D76 20900500          lds R2,_Intensity+5
 3D7A 2B82              std y+3,R2
 3D7C                   .dbline 1481
 3D7C           ;       buff[3] = Intensity[6];//放气等级
 3D7C 20900600          lds R2,_Intensity+6
 3D80 2C82              std y+4,R2
 3D82                   .dbline 1482
 3D82           ;       buff[4] = Intensity[2] ;//RF等级
 3D82 20900200          lds R2,_Intensity+2
 3D86 2D82              std y+5,R2
 3D88                   .dbline 1483
 3D88           ;       buff[5] = Intensity[0];//LED等级
 3D88 20900000          lds R2,_Intensity
 3D8C 2E82              std y+6,R2
 3D8E                   .dbline 1484
 3D8E           ;       buff[6] = Intensity[1];//红外等级
 3D8E 20900100          lds R2,_Intensity+1
 3D92 2F82              std y+7,R2
 3D94                   .dbline 1485
 3D94           ;       buff[7] = Intensity[3];//电机转速等级
 3D94 20900300          lds R2,_Intensity+3
 3D98 2886              std y+8,R2
 3D9A                   .dbline 1486
 3D9A           ;       buff[8] = Intensity[7];//电机转向
 3D9A 20900700          lds R2,_Intensity+7
 3D9E 2986              std y+9,R2
 3DA0                   .dbline 1488
 3DA0           ; 
 3DA0           ;       DwinWriteLongWords(ADDR_HANDPARAMETER_TO_ANDROID,buff,9);//迪文屏通信函数
 3DA0 89E0              ldi R24,9
 3DA2 8883              std y+0,R24
 3DA4 9E01              movw R18,R28
 3DA6 2F5F              subi R18,255  ; offset = 1
 3DA8 3F4F              sbci R19,255
 3DAA 00E0              ldi R16,17920
 3DAC 16E4              ldi R17,70
 3DAE 0E940000          xcall _DwinWriteLongWords
 3DB2                   .dbline 1490
 3DB2           ;           //cut_pic(0,28+Intensity[7],523,388,588,788,523,388);
 3DB2           ;     }
 3DB2 3BC0              xjmp L909
 3DB4           L908:
 3DB4                   .dbline 1491
 3DB4           ;       else if(HandID==4)
 3DB4 80910000          lds R24,_HandID
 3DB8 8430              cpi R24,4
 3DBA B9F5              brne L935
 3DBC           X384:
 3DBC                   .dbline 1492
 3DBC           ;       {
 3DBC                   .dbline 1493
 3DBC           ;       MACHINE_STATE.WORK_STATE=1-MACHINE_STATE.WORK_STATE;
 3DBC 20900100          lds R2,_MACHINE_STATE+1
 3DC0 81E0              ldi R24,1
 3DC2 8219              sub R24,R2
 3DC4 80930100          sts _MACHINE_STATE+1,R24
 3DC8                   .dbline 1494
 3DC8           ;       buff[0] = MACHINE_STATE.HANDLE_ID-1;
 3DC8 80910000          lds R24,_MACHINE_STATE
 3DCC 8150              subi R24,1
 3DCE 8983              std y+1,R24
 3DD0                   .dbline 1495
 3DD0           ;       buff[1] = MACHINE_STATE.WORK_STATE;
 3DD0 20900100          lds R2,_MACHINE_STATE+1
 3DD4 2A82              std y+2,R2
 3DD6                   .dbline 1496
 3DD6           ;       DwinWriteLongWords(ADDR_HANDWORK_TO_ANDROID, buff, 2); //反馈给安卓端
 3DD6 82E0              ldi R24,2
 3DD8 8883              std y+0,R24
 3DDA 9E01              movw R18,R28
 3DDC 2F5F              subi R18,255  ; offset = 1
 3DDE 3F4F              sbci R19,255
 3DE0 01E0              ldi R16,17921
 3DE2 16E4              ldi R17,70
 3DE4 0E940000          xcall _DwinWriteLongWords
 3DE8                   .dbline 1497
 3DE8           ;         if(MACHINE_STATE.WORK_STATE==1)
 3DE8 80910100          lds R24,_MACHINE_STATE+1
 3DEC 8130              cpi R24,1
 3DEE 99F4              brne L941
 3DF0           X385:
 3DF0                   .dbline 1498
 3DF0           ;         {
 3DF0                   .dbline 1499
 3DF0           ;           if(Intensity[8]==2)  BitClr(PORTG,4);//手柄工作指示灯
 3DF0 80910800          lds R24,_Intensity+8
 3DF4 8230              cpi R24,2
 3DF6 29F4              brne L944
 3DF8           X386:
 3DF8                   .dbline 1499
 3DF8 80916500          lds R24,101
 3DFC 8F7E              andi R24,239
 3DFE 80936500          sts 101,R24
 3E02           L944:
 3E02                   .dbline 1500
 3E02           ;           if(Intensity[8]==3)  BitClr(PORTG,3);//手柄工作指示灯
 3E02 80910800          lds R24,_Intensity+8
 3E06 8330              cpi R24,3
 3E08 81F4              brne L942
 3E0A           X387:
 3E0A                   .dbline 1500
 3E0A 80916500          lds R24,101
 3E0E 877F              andi R24,247
 3E10 80936500          sts 101,R24
 3E14                   .dbline 1501
 3E14           ;         }
 3E14 0AC0              xjmp L942
 3E16           L941:
 3E16                   .dbline 1503
 3E16           ;         else
 3E16           ;         {
 3E16                   .dbline 1504
 3E16           ;           BitSet(PORTG,4);
 3E16 80916500          lds R24,101
 3E1A 8061              ori R24,16
 3E1C 80936500          sts 101,R24
 3E20                   .dbline 1505
 3E20           ;           BitSet(PORTG,3);
 3E20 80916500          lds R24,101
 3E24 8860              ori R24,8
 3E26 80936500          sts 101,R24
 3E2A                   .dbline 1506
 3E2A           ;         }
 3E2A           L942:
 3E2A                   .dbline 1508
 3E2A           ;         //cut_pic(0,28+Work,Work_Key[18].XS,Work_Key[18].YS,Work_Key[18].XE,Work_Key[18].YE,Work_Key[18].XS,Work_Key[18].YS);
 3E2A           ;   }
 3E2A           L935:
 3E2A           L909:
 3E2A                   .dbline 1509
 3E2A           ;       if((PIND&0x10)==0) HandID=1;
 3E2A 8499              sbic 0x10,4
 3E2C 04C0              rjmp L950
 3E2E           X388:
 3E2E                   .dbline 1509
 3E2E 81E0              ldi R24,1
 3E30 80930000          sts _HandID,R24
 3E34 1DC0              xjmp L951
 3E36           L950:
 3E36                   .dbline 1510
 3E36           ;     else if((PIND&0x20)==0)  HandID=3;
 3E36 8599              sbic 0x10,5
 3E38 04C0              rjmp L952
 3E3A           X389:
 3E3A                   .dbline 1510
 3E3A 83E0              ldi R24,3
 3E3C 80930000          sts _HandID,R24
 3E40 17C0              xjmp L953
 3E42           L952:
 3E42                   .dbline 1511
 3E42           ;     else if((PIND&0x40)==0)  HandID=4;
 3E42 8699              sbic 0x10,6
 3E44 04C0              rjmp L954
 3E46           X390:
 3E46                   .dbline 1511
 3E46 84E0              ldi R24,4
 3E48 80930000          sts _HandID,R24
 3E4C 11C0              xjmp L955
 3E4E           L954:
 3E4E                   .dbline 1512
 3E4E           ;     else if((PIND&0x80)==0)  HandID=2;
 3E4E 8799              sbic 0x10,7
 3E50 04C0              rjmp L956
 3E52           X391:
 3E52                   .dbline 1512
 3E52 82E0              ldi R24,2
 3E54 80930000          sts _HandID,R24
 3E58 0BC0              xjmp L957
 3E5A           L956:
 3E5A                   .dbline 1513
 3E5A           ;     else if((PING&0x01)==0)  HandID=0;
 3E5A 20906300          lds R2,99
 3E5E 20FC              sbrc R2,0
 3E60 04C0              rjmp L958
 3E62           X392:
 3E62                   .dbline 1513
 3E62 2224              clr R2
 3E64 20920000          sts _HandID,R2
 3E68 03C0              xjmp L959
 3E6A           L958:
 3E6A                   .dbline 1514
 3E6A           ;     else HandID=255;
 3E6A 8FEF              ldi R24,255
 3E6C 80930000          sts _HandID,R24
 3E70           L959:
 3E70           L957:
 3E70           L955:
 3E70           L953:
 3E70           L951:
 3E70                   .dbline 1515
 3E70           ;     if(HandID>5) 
 3E70 85E0              ldi R24,5
 3E72 20900000          lds R2,_HandID
 3E76 8215              cp R24,R2
 3E78 20F4              brsh L960
 3E7A           X393:
 3E7A                   .dbline 1516
 3E7A           ;       {
 3E7A                   .dbline 1517
 3E7A           ;         Hand_Event=KEY_NULL;
 3E7A 2224              clr R2
 3E7C 20920000          sts _Hand_Event,R2
 3E80                   .dbline 1518
 3E80           ;         return;
 3E80 6AC0              xjmp L879
 3E82           L960:
 3E82                   .dbline 1520
 3E82           ;       }
 3E82           ;     Hand_Event=KEY_KEEP;
 3E82 82E0              ldi R24,2
 3E84 80930000          sts _Hand_Event,R24
 3E88                   .dbline 1521
 3E88           ;   }
 3E88 66C0              xjmp L907
 3E8A           L906:
 3E8A                   .dbline 1522
 3E8A           ;   else if(Hand_Event==KEY_KEEP)
 3E8A 80910000          lds R24,_Hand_Event
 3E8E 8230              cpi R24,2
 3E90 69F5              brne L962
 3E92           X394:
 3E92                   .dbline 1523
 3E92           ;   {
 3E92                   .dbline 1524
 3E92           ;     if((PIND&0x10)==0) HandID=1;
 3E92 8499              sbic 0x10,4
 3E94 04C0              rjmp L964
 3E96           X395:
 3E96                   .dbline 1524
 3E96 81E0              ldi R24,1
 3E98 80930000          sts _HandID,R24
 3E9C 1DC0              xjmp L965
 3E9E           L964:
 3E9E                   .dbline 1525
 3E9E           ;     else if((PIND&0x20)==0)  HandID=3;
 3E9E 8599              sbic 0x10,5
 3EA0 04C0              rjmp L966
 3EA2           X396:
 3EA2                   .dbline 1525
 3EA2 83E0              ldi R24,3
 3EA4 80930000          sts _HandID,R24
 3EA8 17C0              xjmp L967
 3EAA           L966:
 3EAA                   .dbline 1526
 3EAA           ;     else if((PIND&0x40)==0)  HandID=4;
 3EAA 8699              sbic 0x10,6
 3EAC 04C0              rjmp L968
 3EAE           X397:
 3EAE                   .dbline 1526
 3EAE 84E0              ldi R24,4
 3EB0 80930000          sts _HandID,R24
 3EB4 11C0              xjmp L969
 3EB6           L968:
 3EB6                   .dbline 1527
 3EB6           ;     else if((PIND&0x80)==0)  HandID=2;
 3EB6 8799              sbic 0x10,7
 3EB8 04C0              rjmp L970
 3EBA           X398:
 3EBA                   .dbline 1527
 3EBA 82E0              ldi R24,2
 3EBC 80930000          sts _HandID,R24
 3EC0 0BC0              xjmp L971
 3EC2           L970:
 3EC2                   .dbline 1528
 3EC2           ;     else if((PING&0x01)==0)  HandID=0;
 3EC2 20906300          lds R2,99
 3EC6 20FC              sbrc R2,0
 3EC8 04C0              rjmp L972
 3ECA           X399:
 3ECA                   .dbline 1528
 3ECA 2224              clr R2
 3ECC 20920000          sts _HandID,R2
 3ED0 03C0              xjmp L973
 3ED2           L972:
 3ED2                   .dbline 1529
 3ED2           ;     else HandID=255;
 3ED2 8FEF              ldi R24,255
 3ED4 80930000          sts _HandID,R24
 3ED8           L973:
 3ED8           L971:
 3ED8           L969:
 3ED8           L967:
 3ED8           L965:
 3ED8                   .dbline 1530
 3ED8           ;     if(HandID>5) Hand_Event=KEY_UP;
 3ED8 85E0              ldi R24,5
 3EDA 20900000          lds R2,_HandID
 3EDE 8215              cp R24,R2
 3EE0 08F0              brlo X412
 3EE2 39C0              xjmp L963
 3EE4           X412:
 3EE4           X400:
 3EE4                   .dbline 1530
 3EE4 83E0              ldi R24,3
 3EE6 80930000          sts _Hand_Event,R24
 3EEA                   .dbline 1531
 3EEA           ;   }
 3EEA 35C0              xjmp L963
 3EEC           L962:
 3EEC                   .dbline 1532
 3EEC           ;   else if(Hand_Event==KEY_UP)
 3EEC 80910000          lds R24,_Hand_Event
 3EF0 8330              cpi R24,3
 3EF2 89F5              brne L976
 3EF4           X401:
 3EF4                   .dbline 1533
 3EF4           ;   {
 3EF4                   .dbline 1534
 3EF4           ;     if((PIND&0x10)==0) HandID=1;
 3EF4 8499              sbic 0x10,4
 3EF6 04C0              rjmp L978
 3EF8           X402:
 3EF8                   .dbline 1534
 3EF8 81E0              ldi R24,1
 3EFA 80930000          sts _HandID,R24
 3EFE 1DC0              xjmp L979
 3F00           L978:
 3F00                   .dbline 1535
 3F00           ;     else if((PIND&0x20)==0)  HandID=3;
 3F00 8599              sbic 0x10,5
 3F02 04C0              rjmp L980
 3F04           X403:
 3F04                   .dbline 1535
 3F04 83E0              ldi R24,3
 3F06 80930000          sts _HandID,R24
 3F0A 17C0              xjmp L981
 3F0C           L980:
 3F0C                   .dbline 1536
 3F0C           ;     else if((PIND&0x40)==0)  HandID=4;
 3F0C 8699              sbic 0x10,6
 3F0E 04C0              rjmp L982
 3F10           X404:
 3F10                   .dbline 1536
 3F10 84E0              ldi R24,4
 3F12 80930000          sts _HandID,R24
 3F16 11C0              xjmp L983
 3F18           L982:
 3F18                   .dbline 1537
 3F18           ;     else if((PIND&0x80)==0)  HandID=2;
 3F18 8799              sbic 0x10,7
 3F1A 04C0              rjmp L984
 3F1C           X405:
 3F1C                   .dbline 1537
 3F1C 82E0              ldi R24,2
 3F1E 80930000          sts _HandID,R24
 3F22 0BC0              xjmp L985
 3F24           L984:
 3F24                   .dbline 1538
 3F24           ;     else if((PING&0x01)==0)  HandID=0;
 3F24 20906300          lds R2,99
 3F28 20FC              sbrc R2,0
 3F2A 04C0              rjmp L986
 3F2C           X406:
 3F2C                   .dbline 1538
 3F2C 2224              clr R2
 3F2E 20920000          sts _HandID,R2
 3F32 03C0              xjmp L987
 3F34           L986:
 3F34                   .dbline 1539
 3F34           ;     else HandID=255;
 3F34 8FEF              ldi R24,255
 3F36 80930000          sts _HandID,R24
 3F3A           L987:
 3F3A           L985:
 3F3A           L983:
 3F3A           L981:
 3F3A           L979:
 3F3A                   .dbline 1540
 3F3A           ;     if(HandID<5) 
 3F3A 80910000          lds R24,_HandID
 3F3E 8530              cpi R24,5
 3F40 20F4              brsh L988
 3F42           X407:
 3F42                   .dbline 1541
 3F42           ;       {
 3F42                   .dbline 1542
 3F42           ;         Hand_Event=KEY_KEEP;
 3F42 82E0              ldi R24,2
 3F44 80930000          sts _Hand_Event,R24
 3F48                   .dbline 1543
 3F48           ;         return;
 3F48 06C0              xjmp L879
 3F4A           L988:
 3F4A                   .dbline 1545
 3F4A           ;       }
 3F4A           ;     Hand_Event=KEY_NULL;
 3F4A 2224              clr R2
 3F4C 20920000          sts _Hand_Event,R2
 3F50                   .dbline 1546
 3F50           ;       HandID=255;
 3F50 8FEF              ldi R24,255
 3F52 80930000          sts _HandID,R24
 3F56                   .dbline 1547
 3F56           ;   }
 3F56           L976:
 3F56           L963:
 3F56           L907:
 3F56           L889:
 3F56                   .dbline -2
 3F56           L879:
 3F56                   .dbline 0 ; func end
 3F56 6196              adiw R28,17
 3F58 0895              ret
 3F5A                   .dbsym l buff 1 A[16:16]c
 3F5A                   .dbend
 3F5A                   .dbfunc e WorkKeyDown _WorkKeyDown fV
                        .even
 3F5A           _WorkKeyDown::
 3F5A                   .dbline -1
 3F5A                   .dbline 1550
 3F5A           ; }
 3F5A           ; void WorkKeyDown(void)
 3F5A           ; {
 3F5A                   .dbline -2
 3F5A           L990:
 3F5A                   .dbline 0 ; func end
 3F5A 0895              ret
 3F5C                   .dbend
 3F5C                   .dbfunc e WorkKeyUp _WorkKeyUp fV
                        .even
 3F5C           _WorkKeyUp::
 3F5C 0E940000          xcall push_xgset303C
 3F60 2C97              sbiw R28,12
 3F62                   .dbline -1
 3F62                   .dbline 1627
 3F62           ;   /*
 3F62           ;   unsigned int i;
 3F62           ;   if(DisPage!=WORKPAGE) return;
 3F62           ;   KeyID=GetKeyID(Work_Key,19); 
 3F62           ;   if(KeyID<7)
 3F62           ;   {
 3F62           ;     if((KeyID==0)&&(Intensity[8]==3));
 3F62           ;       else if((KeyID==1)&&(Intensity[8]>0));
 3F62           ;       else if((KeyID==3)&&(Intensity[8]>1));
 3F62           ;       else
 3F62           ;       {
 3F62           ;      i=Touch_Y;
 3F62           ;      Intensity[KeyID]=(315-i)/20;
 3F62           ;        DisIntensity(KeyID);
 3F62           ;      IntensitySet();
 3F62           ;        Touch_Event=TOUCH_UP;
 3F62           ;       }
 3F62           ;   }
 3F62           ;   else if((KeyID>=7)&&(KeyID<=10)&&(Work==0))
 3F62           ;   {
 3F62           ;     Intensity[8]=KeyID-7;
 3F62           ;       for(i=0;i<7;i++)
 3F62           ;     {
 3F62           ;       Intensity[i]=Intensity_Tab[Intensity[8]][i];
 3F62           ;       DisIntensity(i);
 3F62           ;     }
 3F62           ;         //EEPROMReadBytes(CounterAddr+hand[Intensity[8]]*4,&Total_counter,4);
 3F62           ;     HandpieceSet();
 3F62           ;         IntensitySet();
 3F62           ;     ModeSet();
 3F62           ;   }
 3F62           ;   else if((KeyID>=11)&&(KeyID<=14))
 3F62           ;   {
 3F62           ;     Intensity[7]=KeyID-11;
 3F62           ;     ModeSet();
 3F62           ;       cut_pic(0,28+Intensity[7],523,388,588,788,523,388);
 3F62           ;   }
 3F62           ;   else if((KeyID==15)&&(Work==0))
 3F62           ;   {
 3F62           ;       cut_pic(0,29,Work_Key[KeyID].XS,Work_Key[KeyID].YS,Work_Key[KeyID].XE,Work_Key[KeyID].YE,Work_Key[KeyID].XS,Work_Key[KeyID].YS);
 3F62           ;       //EEPROMWriteBytes(IntensityAddr+Function_Tab[Function_Ptr]*9,Intensity,9);
 3F62           ;   }
 3F62           ;   else if((KeyID==16)&&(Work==0))
 3F62           ;   {
 3F62           ;       cut_pic(0,29,Work_Key[KeyID].XS,Work_Key[KeyID].YS,Work_Key[KeyID].XE,Work_Key[KeyID].YE,Work_Key[KeyID].XS,Work_Key[KeyID].YS);
 3F62           ;     for(i=0;i<9;i++)
 3F62           ;     {
 3F62           ;       Intensity[i]=Intensity_Tab[Function_Tab[Function_Ptr]][i];
 3F62           ;       if(i<7) DisIntensity(i);
 3F62           ;     }
 3F62           ;     HandpieceSet();
 3F62           ;     cut_pic(0,28+Intensity[7],523,388,588,788,523,388);
 3F62           ;     //EEPROMWriteBytes(IntensityAddr+Function_Tab[Function_Ptr]*9,Intensity,9);
 3F62           ;   }
 3F62           ;   else if((KeyID==17)&&(Work==0))
 3F62           ;   {
 3F62           ;       cut_pic(0,29,Work_Key[KeyID].XS,Work_Key[KeyID].YS,Work_Key[KeyID].XE,Work_Key[KeyID].YE,Work_Key[KeyID].XS,Work_Key[KeyID].YS);
 3F62           ;       for(i=0;i<9;i++) Intensity[i]=0;
 3F62           ;   }
 3F62           ;   else if(KeyID==18)
 3F62           ;   {
 3F62           ;    // Work=1-Work;
 3F62           ;       if(Work==1)
 3F62           ;         {
 3F62           ;           if(Intensity[8]==2)  BitClr(PORTG,4);
 3F62           ;           if(Intensity[8]==3)  BitClr(PORTG,3);
 3F62           ;         }
 3F62           ;         else
 3F62           ;         {
 3F62           ;           BitSet(PORTG,4);
 3F62           ;           BitSet(PORTG,3);
 3F62           ;         }
 3F62           ;       cut_pic(0,28+Work,Work_Key[KeyID].XS,Work_Key[KeyID].YS,Work_Key[KeyID].XE,Work_Key[KeyID].YE,Work_Key[KeyID].XS,Work_Key[KeyID].YS);
 3F62           ;   }*/
 3F62           ; }
 3F62           ; void WorkKeyUp(void)
 3F62           ; {
 3F62                   .dbline 1628
 3F62           ;   if(DisPage!=WORKPAGE) return;
 3F62 80910000          lds R24,_DisPage
 3F66 8531              cpi R24,21
 3F68 09F0              breq L992
 3F6A           X413:
 3F6A                   .dbline 1628
 3F6A 0FC1              xjmp L991
 3F6C           L992:
 3F6C                   .dbline 1629
 3F6C           ;   if((KeyID==15)&&(Work==0)) cut_pic(0,28,Work_Key[KeyID].XS,Work_Key[KeyID].YS,Work_Key[KeyID].XE,Work_Key[KeyID].YE,Work_Key[KeyID].XS,Work_Key[KeyID].YS);
 3F6C 80910000          lds R24,_KeyID
 3F70 8F30              cpi R24,15
 3F72 09F0              breq X429
 3F74 42C0              xjmp L994
 3F76           X429:
 3F76           X414:
 3F76 20900000          lds R2,_Work
 3F7A 2220              tst R2
 3F7C 09F0              breq X430
 3F7E 3DC0              xjmp L994
 3F80           X430:
 3F80           X415:
 3F80                   .dbline 1629
 3F80 282E              mov R2,R24
 3F82 3324              clr R3
 3F84 220C              lsl R2
 3F86 331C              rol R3
 3F88 220C              lsl R2
 3F8A 331C              rol R3
 3F8C 220C              lsl R2
 3F8E 331C              rol R3
 3F90 2101              movw R4,R2
 3F92 80E0              ldi R24,<_Work_Key+2
 3F94 90E0              ldi R25,>_Work_Key+2
 3F96 F101              movw R30,R2
 3F98 E80F              add R30,R24
 3F9A F91F              adc R31,R25
 3F9C 2790              elpm R2,Z+
 3F9E 3690              elpm R3,Z
 3FA0 3B86              std y+11,R3
 3FA2 2A86              std y+10,R2
 3FA4 80E0              ldi R24,<_Work_Key
 3FA6 90E0              ldi R25,>_Work_Key
 3FA8 F201              movw R30,R4
 3FAA E80F              add R30,R24
 3FAC F91F              adc R31,R25
 3FAE 6790              elpm R6,Z+
 3FB0 7690              elpm R7,Z
 3FB2 7986              std y+9,R7
 3FB4 6886              std y+8,R6
 3FB6 80E0              ldi R24,<_Work_Key+6
 3FB8 90E0              ldi R25,>_Work_Key+6
 3FBA F201              movw R30,R4
 3FBC E80F              add R30,R24
 3FBE F91F              adc R31,R25
 3FC0 2790              elpm R2,Z+
 3FC2 3690              elpm R3,Z
 3FC4 3F82              std y+7,R3
 3FC6 2E82              std y+6,R2
 3FC8 80E0              ldi R24,<_Work_Key+4
 3FCA 90E0              ldi R25,>_Work_Key+4
 3FCC F201              movw R30,R4
 3FCE E80F              add R30,R24
 3FD0 F91F              adc R31,R25
 3FD2 2790              elpm R2,Z+
 3FD4 3690              elpm R3,Z
 3FD6 3D82              std y+5,R3
 3FD8 2C82              std y+4,R2
 3FDA 80E0              ldi R24,<_Work_Key+2
 3FDC 90E0              ldi R25,>_Work_Key+2
 3FDE F201              movw R30,R4
 3FE0 E80F              add R30,R24
 3FE2 F91F              adc R31,R25
 3FE4 2790              elpm R2,Z+
 3FE6 3690              elpm R3,Z
 3FE8 3B82              std y+3,R3
 3FEA 2A82              std y+2,R2
 3FEC 7982              std y+1,R7
 3FEE 6882              std y+0,R6
 3FF0 2CE1              ldi R18,28
 3FF2 0027              clr R16
 3FF4 0E940000          xcall _cut_pic
 3FF8 92C0              xjmp L995
 3FFA           L994:
 3FFA                   .dbline 1630
 3FFA           ;   else if((KeyID==16)&&(Work==0)) cut_pic(0,28,Work_Key[KeyID].XS,Work_Key[KeyID].YS,Work_Key[KeyID].XE,Work_Key[KeyID].YE,Work_Key[KeyID].XS,Work_Key[KeyID].YS);
 3FFA 80910000          lds R24,_KeyID
 3FFE 8031              cpi R24,16
 4000 09F0              breq X431
 4002 41C0              xjmp L1000
 4004           X431:
 4004           X416:
 4004 20900000          lds R2,_Work
 4008 2220              tst R2
 400A 09F0              breq X432
 400C 3CC0              xjmp L1000
 400E           X432:
 400E           X417:
 400E                   .dbline 1630
 400E C82E              mov R12,R24
 4010 DD24              clr R13
 4012 CC0C              lsl R12
 4014 DD1C              rol R13
 4016 CC0C              lsl R12
 4018 DD1C              rol R13
 401A CC0C              lsl R12
 401C DD1C              rol R13
 401E 80E0              ldi R24,<_Work_Key+2
 4020 90E0              ldi R25,>_Work_Key+2
 4022 F601              movw R30,R12
 4024 E80F              add R30,R24
 4026 F91F              adc R31,R25
 4028 2790              elpm R2,Z+
 402A 3690              elpm R3,Z
 402C 3B86              std y+11,R3
 402E 2A86              std y+10,R2
 4030 80E0              ldi R24,<_Work_Key
 4032 90E0              ldi R25,>_Work_Key
 4034 F601              movw R30,R12
 4036 E80F              add R30,R24
 4038 F91F              adc R31,R25
 403A A790              elpm R10,Z+
 403C B690              elpm R11,Z
 403E B986              std y+9,R11
 4040 A886              std y+8,R10
 4042 80E0              ldi R24,<_Work_Key+6
 4044 90E0              ldi R25,>_Work_Key+6
 4046 F601              movw R30,R12
 4048 E80F              add R30,R24
 404A F91F              adc R31,R25
 404C 2790              elpm R2,Z+
 404E 3690              elpm R3,Z
 4050 3F82              std y+7,R3
 4052 2E82              std y+6,R2
 4054 80E0              ldi R24,<_Work_Key+4
 4056 90E0              ldi R25,>_Work_Key+4
 4058 F601              movw R30,R12
 405A E80F              add R30,R24
 405C F91F              adc R31,R25
 405E 2790              elpm R2,Z+
 4060 3690              elpm R3,Z
 4062 3D82              std y+5,R3
 4064 2C82              std y+4,R2
 4066 80E0              ldi R24,<_Work_Key+2
 4068 90E0              ldi R25,>_Work_Key+2
 406A F601              movw R30,R12
 406C E80F              add R30,R24
 406E F91F              adc R31,R25
 4070 2790              elpm R2,Z+
 4072 3690              elpm R3,Z
 4074 3B82              std y+3,R3
 4076 2A82              std y+2,R2
 4078 B982              std y+1,R11
 407A A882              std y+0,R10
 407C 2CE1              ldi R18,28
 407E 0027              clr R16
 4080 0E940000          xcall _cut_pic
 4084 4CC0              xjmp L1001
 4086           L1000:
 4086                   .dbline 1631
 4086           ;   else if((KeyID==17)&&(Work==0))
 4086 80910000          lds R24,_KeyID
 408A 8131              cpi R24,17
 408C 09F0              breq X433
 408E 47C0              xjmp L1006
 4090           X433:
 4090           X418:
 4090 20900000          lds R2,_Work
 4094 2220              tst R2
 4096 09F0              breq X434
 4098 42C0              xjmp L1006
 409A           X434:
 409A           X419:
 409A                   .dbline 1632
 409A           ;   {
 409A                   .dbline 1633
 409A           ;       cut_pic(0,28,Work_Key[KeyID].XS,Work_Key[KeyID].YS,Work_Key[KeyID].XE,Work_Key[KeyID].YE,Work_Key[KeyID].XS,Work_Key[KeyID].YS);
 409A C82E              mov R12,R24
 409C DD24              clr R13
 409E CC0C              lsl R12
 40A0 DD1C              rol R13
 40A2 CC0C              lsl R12
 40A4 DD1C              rol R13
 40A6 CC0C              lsl R12
 40A8 DD1C              rol R13
 40AA 80E0              ldi R24,<_Work_Key+2
 40AC 90E0              ldi R25,>_Work_Key+2
 40AE F601              movw R30,R12
 40B0 E80F              add R30,R24
 40B2 F91F              adc R31,R25
 40B4 2790              elpm R2,Z+
 40B6 3690              elpm R3,Z
 40B8 3B86              std y+11,R3
 40BA 2A86              std y+10,R2
 40BC 80E0              ldi R24,<_Work_Key
 40BE 90E0              ldi R25,>_Work_Key
 40C0 F601              movw R30,R12
 40C2 E80F              add R30,R24
 40C4 F91F              adc R31,R25
 40C6 A790              elpm R10,Z+
 40C8 B690              elpm R11,Z
 40CA B986              std y+9,R11
 40CC A886              std y+8,R10
 40CE 80E0              ldi R24,<_Work_Key+6
 40D0 90E0              ldi R25,>_Work_Key+6
 40D2 F601              movw R30,R12
 40D4 E80F              add R30,R24
 40D6 F91F              adc R31,R25
 40D8 2790              elpm R2,Z+
 40DA 3690              elpm R3,Z
 40DC 3F82              std y+7,R3
 40DE 2E82              std y+6,R2
 40E0 80E0              ldi R24,<_Work_Key+4
 40E2 90E0              ldi R25,>_Work_Key+4
 40E4 F601              movw R30,R12
 40E6 E80F              add R30,R24
 40E8 F91F              adc R31,R25
 40EA 2790              elpm R2,Z+
 40EC 3690              elpm R3,Z
 40EE 3D82              std y+5,R3
 40F0 2C82              std y+4,R2
 40F2 80E0              ldi R24,<_Work_Key+2
 40F4 90E0              ldi R25,>_Work_Key+2
 40F6 F601              movw R30,R12
 40F8 E80F              add R30,R24
 40FA F91F              adc R31,R25
 40FC 2790              elpm R2,Z+
 40FE 3690              elpm R3,Z
 4100 3B82              std y+3,R3
 4102 2A82              std y+2,R2
 4104 B982              std y+1,R11
 4106 A882              std y+0,R10
 4108 2CE1              ldi R18,28
 410A 0027              clr R16
 410C 0E940000          xcall _cut_pic
 4110                   .dbline 1634
 4110           ;       DisWelcome();
 4110 0E945302          xcall _DisWelcome
 4114                   .dbline 1635
 4114           ;     DisPage=WELCOMEPAGE;
 4114 2224              clr R2
 4116 20920000          sts _DisPage,R2
 411A                   .dbline 1636
 411A           ;       Send_Data8();
 411A 0E940000          xcall _Send_Data8
 411E                   .dbline 1637
 411E           ;   }
 411E           L1006:
 411E           L1001:
 411E           L995:
 411E                   .dbline 1638
 411E           ;   if(KeyID<7)
 411E 80910000          lds R24,_KeyID
 4122 8730              cpi R24,7
 4124 30F4              brsh L1012
 4126           X420:
 4126                   .dbline 1639
 4126           ;   {
 4126                   .dbline 1640
 4126           ;     Menu=KeyID;
 4126 282E              mov R2,R24
 4128 20920000          sts _Menu,R2
 412C                   .dbline 1641
 412C           ;     Send_Data();
 412C 0E940000          xcall _Send_Data
 4130                   .dbline 1642
 4130           ;   }
 4130 2CC0              xjmp L1013
 4132           L1012:
 4132                   .dbline 1643
 4132           ;   else if((KeyID>=7)&&(KeyID<=10)&&(Work==0))
 4132 40910000          lds R20,_KeyID
 4136 4730              cpi R20,7
 4138 50F0              brlo L1014
 413A           X421:
 413A 8AE0              ldi R24,10
 413C 8417              cp R24,R20
 413E 38F0              brlo L1014
 4140           X422:
 4140 20900000          lds R2,_Work
 4144 2220              tst R2
 4146 19F4              brne L1014
 4148           X423:
 4148                   .dbline 1644
 4148           ;   {
 4148                   .dbline 1645
 4148           ;    Send_Data8();
 4148 0E940000          xcall _Send_Data8
 414C                   .dbline 1646
 414C           ;   }
 414C 1EC0              xjmp L1015
 414E           L1014:
 414E                   .dbline 1647
 414E           ;   else if((KeyID>=11)&&(KeyID<=14))
 414E 40910000          lds R20,_KeyID
 4152 4B30              cpi R20,11
 4154 48F0              brlo L1016
 4156           X424:
 4156 8EE0              ldi R24,14
 4158 8417              cp R24,R20
 415A 30F0              brlo L1016
 415C           X425:
 415C                   .dbline 1648
 415C           ;   {
 415C                   .dbline 1649
 415C           ;    Menu=7;
 415C 87E0              ldi R24,7
 415E 80930000          sts _Menu,R24
 4162                   .dbline 1650
 4162           ;    Send_Data();
 4162 0E940000          xcall _Send_Data
 4166                   .dbline 1651
 4166           ;   }
 4166 11C0              xjmp L1017
 4168           L1016:
 4168                   .dbline 1652
 4168           ;   else if((KeyID==16)&&(Work==0))
 4168 80910000          lds R24,_KeyID
 416C 8031              cpi R24,16
 416E 39F4              brne L1018
 4170           X426:
 4170 20900000          lds R2,_Work
 4174 2220              tst R2
 4176 19F4              brne L1018
 4178           X427:
 4178                   .dbline 1653
 4178           ;   {
 4178                   .dbline 1654
 4178           ;    Send_Data8();
 4178 0E940000          xcall _Send_Data8
 417C                   .dbline 1655
 417C           ;   }
 417C 06C0              xjmp L1019
 417E           L1018:
 417E                   .dbline 1656
 417E           ;   else if(KeyID==18)
 417E 80910000          lds R24,_KeyID
 4182 8231              cpi R24,18
 4184 11F4              brne L1020
 4186           X428:
 4186                   .dbline 1657
 4186           ;   {
 4186                   .dbline 1658
 4186           ;    Send_command();
 4186 0E940000          xcall _Send_command
 418A                   .dbline 1659
 418A           ;   }
 418A           L1020:
 418A           L1019:
 418A           L1017:
 418A           L1015:
 418A           L1013:
 418A                   .dbline -2
 418A           L991:
 418A                   .dbline 0 ; func end
 418A 2C96              adiw R28,12
 418C 0C940000          xjmp pop_xgset303C
 4190                   .dbend
 4190                   .dbfunc e ULKeyDown _ULKeyDown fV
                        .even
 4190           _ULKeyDown::
 4190 4A93              st -y,R20
 4192 5A93              st -y,R21
 4194 2C97              sbiw R28,12
 4196                   .dbline -1
 4196                   .dbline 1664
 4196           ; 
 4196           ; }
 4196           ; 
 4196           ; void ULKeyDown(void)
 4196           ; {
 4196                   .dbline 1665
 4196           ;   if(DisPage!=ultrasonicpage) return;
 4196 80910000          lds R24,_DisPage
 419A 8731              cpi R24,23
 419C 09F0              breq L1023
 419E           X435:
 419E                   .dbline 1665
 419E 49C2              xjmp L1022
 41A0           L1023:
 41A0                   .dbline 1666
 41A0           ;   KeyID=GetKeyID(UL_Key,4); 
 41A0 24E0              ldi R18,4
 41A2 00E0              ldi R16,<_UL_Key
 41A4 10E0              ldi R17,>_UL_Key
 41A6 0E949F03          xcall _GetKeyID
 41AA 00930000          sts _KeyID,R16
 41AE                   .dbline 1667
 41AE           ;   if((KeyID==0)&&(UL_workdate==0))
 41AE 0023              tst R16
 41B0 09F0              breq X457
 41B2 F2C0              xjmp L1025
 41B4           X457:
 41B4           X436:
 41B4 20900000          lds R2,_UL_workdate
 41B8 2220              tst R2
 41BA 09F0              breq X458
 41BC EDC0              xjmp L1025
 41BE           X458:
 41BE           X437:
 41BE                   .dbline 1668
 41BE           ;   {
 41BE                   .dbline 1669
 41BE           ;     cut_pic(1,109,420,110,480,168,420,110);if(POWER_LEVEL<5){POWER_LEVEL++;}
 41BE 8EE6              ldi R24,110
 41C0 90E0              ldi R25,0
 41C2 9B87              std y+11,R25
 41C4 8A87              std y+10,R24
 41C6 84EA              ldi R24,420
 41C8 91E0              ldi R25,1
 41CA 9987              std y+9,R25
 41CC 8887              std y+8,R24
 41CE 88EA              ldi R24,168
 41D0 90E0              ldi R25,0
 41D2 9F83              std y+7,R25
 41D4 8E83              std y+6,R24
 41D6 80EE              ldi R24,480
 41D8 91E0              ldi R25,1
 41DA 9D83              std y+5,R25
 41DC 8C83              std y+4,R24
 41DE 8EE6              ldi R24,110
 41E0 90E0              ldi R25,0
 41E2 9B83              std y+3,R25
 41E4 8A83              std y+2,R24
 41E6 84EA              ldi R24,420
 41E8 91E0              ldi R25,1
 41EA 9983              std y+1,R25
 41EC 8883              std y+0,R24
 41EE 2DE6              ldi R18,109
 41F0 01E0              ldi R16,1
 41F2 0E940000          xcall _cut_pic
 41F6                   .dbline 1669
 41F6 80910100          lds R24,_POWER_LEVEL
 41FA 8530              cpi R24,5
 41FC 18F4              brsh L1027
 41FE           X438:
 41FE                   .dbline 1669
 41FE                   .dbline 1669
 41FE 8F5F              subi R24,255    ; addi 1
 4200 80930100          sts _POWER_LEVEL,R24
 4204                   .dbline 1669
 4204           L1027:
 4204                   .dbline 1670
 4204           ;     switch(POWER_LEVEL)//??????????
 4204 40910100          lds R20,_POWER_LEVEL
 4208 5527              clr R21
 420A 4030              cpi R20,0
 420C 4507              cpc R20,R21
 420E C9F0              breq L1032
 4210           X439:
 4210 4130              cpi R20,1
 4212 E0E0              ldi R30,0
 4214 5E07              cpc R21,R30
 4216 91F1              breq L1033
 4218           X440:
 4218 4230              cpi R20,2
 421A E0E0              ldi R30,0
 421C 5E07              cpc R21,R30
 421E 09F4              brne X459
 4220 4AC0              xjmp L1034
 4222           X459:
 4222           X441:
 4222 4330              cpi R20,3
 4224 E0E0              ldi R30,0
 4226 5E07              cpc R21,R30
 4228 09F4              brne X460
 422A 62C0              xjmp L1035
 422C           X460:
 422C           X442:
 422C 4430              cpi R20,4
 422E E0E0              ldi R30,0
 4230 5E07              cpc R21,R30
 4232 09F4              brne X461
 4234 7AC0              xjmp L1036
 4236           X461:
 4236           X443:
 4236 4530              cpi R20,5
 4238 E0E0              ldi R30,0
 423A 5E07              cpc R21,R30
 423C 09F4              brne X462
 423E 91C0              xjmp L1037
 4240           X462:
 4240           X444:
 4240 F8C1              xjmp L1026
 4242           L1032:
 4242                   .dbline 1672
 4242           ;      {
 4242           ;      case 0:  cut_pic(1,109,0,510,60,599,420,170); break;
 4242 8AEA              ldi R24,170
 4244 90E0              ldi R25,0
 4246 9B87              std y+11,R25
 4248 8A87              std y+10,R24
 424A 84EA              ldi R24,420
 424C 91E0              ldi R25,1
 424E 9987              std y+9,R25
 4250 8887              std y+8,R24
 4252 87E5              ldi R24,599
 4254 92E0              ldi R25,2
 4256 9F83              std y+7,R25
 4258 8E83              std y+6,R24
 425A 8CE3              ldi R24,60
 425C 90E0              ldi R25,0
 425E 9D83              std y+5,R25
 4260 8C83              std y+4,R24
 4262 8EEF              ldi R24,510
 4264 91E0              ldi R25,1
 4266 9B83              std y+3,R25
 4268 8A83              std y+2,R24
 426A 2224              clr R2
 426C 3324              clr R3
 426E 3982              std y+1,R3
 4270 2882              std y+0,R2
 4272 2DE6              ldi R18,109
 4274 01E0              ldi R16,1
 4276 0E940000          xcall _cut_pic
 427A                   .dbline 1672
 427A DBC1              xjmp L1026
 427C           L1033:
 427C                   .dbline 1673
 427C           ;      case 1:  cut_pic(1,109,60,510,120,599,420,170); break;
 427C 8AEA              ldi R24,170
 427E 90E0              ldi R25,0
 4280 9B87              std y+11,R25
 4282 8A87              std y+10,R24
 4284 84EA              ldi R24,420
 4286 91E0              ldi R25,1
 4288 9987              std y+9,R25
 428A 8887              std y+8,R24
 428C 87E5              ldi R24,599
 428E 92E0              ldi R25,2
 4290 9F83              std y+7,R25
 4292 8E83              std y+6,R24
 4294 88E7              ldi R24,120
 4296 90E0              ldi R25,0
 4298 9D83              std y+5,R25
 429A 8C83              std y+4,R24
 429C 8EEF              ldi R24,510
 429E 91E0              ldi R25,1
 42A0 9B83              std y+3,R25
 42A2 8A83              std y+2,R24
 42A4 8CE3              ldi R24,60
 42A6 90E0              ldi R25,0
 42A8 9983              std y+1,R25
 42AA 8883              std y+0,R24
 42AC 2DE6              ldi R18,109
 42AE 01E0              ldi R16,1
 42B0 0E940000          xcall _cut_pic
 42B4                   .dbline 1673
 42B4 BEC1              xjmp L1026
 42B6           L1034:
 42B6                   .dbline 1674
 42B6           ;      case 2:  cut_pic(1,109,120,510,180,599,420,170); break;
 42B6 8AEA              ldi R24,170
 42B8 90E0              ldi R25,0
 42BA 9B87              std y+11,R25
 42BC 8A87              std y+10,R24
 42BE 84EA              ldi R24,420
 42C0 91E0              ldi R25,1
 42C2 9987              std y+9,R25
 42C4 8887              std y+8,R24
 42C6 87E5              ldi R24,599
 42C8 92E0              ldi R25,2
 42CA 9F83              std y+7,R25
 42CC 8E83              std y+6,R24
 42CE 84EB              ldi R24,180
 42D0 90E0              ldi R25,0
 42D2 9D83              std y+5,R25
 42D4 8C83              std y+4,R24
 42D6 8EEF              ldi R24,510
 42D8 91E0              ldi R25,1
 42DA 9B83              std y+3,R25
 42DC 8A83              std y+2,R24
 42DE 88E7              ldi R24,120
 42E0 90E0              ldi R25,0
 42E2 9983              std y+1,R25
 42E4 8883              std y+0,R24
 42E6 2DE6              ldi R18,109
 42E8 01E0              ldi R16,1
 42EA 0E940000          xcall _cut_pic
 42EE                   .dbline 1674
 42EE A1C1              xjmp L1026
 42F0           L1035:
 42F0                   .dbline 1675
 42F0           ;      case 3:  cut_pic(1,109,180,510,240,599,420,170);  break;
 42F0 8AEA              ldi R24,170
 42F2 90E0              ldi R25,0
 42F4 9B87              std y+11,R25
 42F6 8A87              std y+10,R24
 42F8 84EA              ldi R24,420
 42FA 91E0              ldi R25,1
 42FC 9987              std y+9,R25
 42FE 8887              std y+8,R24
 4300 87E5              ldi R24,599
 4302 92E0              ldi R25,2
 4304 9F83              std y+7,R25
 4306 8E83              std y+6,R24
 4308 80EF              ldi R24,240
 430A 90E0              ldi R25,0
 430C 9D83              std y+5,R25
 430E 8C83              std y+4,R24
 4310 8EEF              ldi R24,510
 4312 91E0              ldi R25,1
 4314 9B83              std y+3,R25
 4316 8A83              std y+2,R24
 4318 84EB              ldi R24,180
 431A 90E0              ldi R25,0
 431C 9983              std y+1,R25
 431E 8883              std y+0,R24
 4320 2DE6              ldi R18,109
 4322 01E0              ldi R16,1
 4324 0E940000          xcall _cut_pic
 4328                   .dbline 1675
 4328 84C1              xjmp L1026
 432A           L1036:
 432A                   .dbline 1676
 432A           ;      case 4:  cut_pic(1,109,240,510,300,599,420,170);  break;
 432A 8AEA              ldi R24,170
 432C 90E0              ldi R25,0
 432E 9B87              std y+11,R25
 4330 8A87              std y+10,R24
 4332 84EA              ldi R24,420
 4334 91E0              ldi R25,1
 4336 9987              std y+9,R25
 4338 8887              std y+8,R24
 433A 87E5              ldi R24,599
 433C 92E0              ldi R25,2
 433E 9F83              std y+7,R25
 4340 8E83              std y+6,R24
 4342 8CE2              ldi R24,300
 4344 91E0              ldi R25,1
 4346 9D83              std y+5,R25
 4348 8C83              std y+4,R24
 434A 8EEF              ldi R24,254
 434C 9B83              std y+3,R25
 434E 8A83              std y+2,R24
 4350 80EF              ldi R24,240
 4352 90E0              ldi R25,0
 4354 9983              std y+1,R25
 4356 8883              std y+0,R24
 4358 2DE6              ldi R18,109
 435A 01E0              ldi R16,1
 435C 0E940000          xcall _cut_pic
 4360                   .dbline 1676
 4360 68C1              xjmp L1026
 4362           L1037:
 4362                   .dbline 1677
 4362           ;      case 5:  cut_pic(1,109,300,510,358,599,420,170);  break;
 4362 8AEA              ldi R24,170
 4364 90E0              ldi R25,0
 4366 9B87              std y+11,R25
 4368 8A87              std y+10,R24
 436A 84EA              ldi R24,420
 436C 91E0              ldi R25,1
 436E 9987              std y+9,R25
 4370 8887              std y+8,R24
 4372 87E5              ldi R24,599
 4374 92E0              ldi R25,2
 4376 9F83              std y+7,R25
 4378 8E83              std y+6,R24
 437A 86E6              ldi R24,358
 437C 91E0              ldi R25,1
 437E 9D83              std y+5,R25
 4380 8C83              std y+4,R24
 4382 8EEF              ldi R24,254
 4384 9B83              std y+3,R25
 4386 8A83              std y+2,R24
 4388 8CE2              ldi R24,44
 438A 9983              std y+1,R25
 438C 8883              std y+0,R24
 438E 2DE6              ldi R18,109
 4390 01E0              ldi R16,1
 4392 0E940000          xcall _cut_pic
 4396                   .dbline 1677
 4396                   .dbline 1678
 4396           ;      default: break;
 4396                   .dbline 1680
 4396           ;      }
 4396           ;   }
 4396 4DC1              xjmp L1026
 4398           L1025:
 4398                   .dbline 1681
 4398           ;   else if((KeyID==1)&&(UL_workdate==0))
 4398 80910000          lds R24,_KeyID
 439C 8130              cpi R24,1
 439E 09F0              breq X463
 43A0 EFC0              xjmp L1038
 43A2           X463:
 43A2           X445:
 43A2 20900000          lds R2,_UL_workdate
 43A6 2220              tst R2
 43A8 09F0              breq X464
 43AA EAC0              xjmp L1038
 43AC           X464:
 43AC           X446:
 43AC                   .dbline 1682
 43AC           ;   {
 43AC                   .dbline 1683
 43AC           ;     cut_pic(1,109,420,260,480,320,420,260);if(POWER_LEVEL>0){POWER_LEVEL--;}
 43AC 84E0              ldi R24,260
 43AE 91E0              ldi R25,1
 43B0 9B87              std y+11,R25
 43B2 8A87              std y+10,R24
 43B4 84EA              ldi R24,164
 43B6 9987              std y+9,R25
 43B8 8887              std y+8,R24
 43BA 80E4              ldi R24,64
 43BC 9F83              std y+7,R25
 43BE 8E83              std y+6,R24
 43C0 80EE              ldi R24,224
 43C2 9D83              std y+5,R25
 43C4 8C83              std y+4,R24
 43C6 84E0              ldi R24,4
 43C8 9B83              std y+3,R25
 43CA 8A83              std y+2,R24
 43CC 84EA              ldi R24,164
 43CE 9983              std y+1,R25
 43D0 8883              std y+0,R24
 43D2 2DE6              ldi R18,109
 43D4 01E0              ldi R16,1
 43D6 0E940000          xcall _cut_pic
 43DA                   .dbline 1683
 43DA 80E0              ldi R24,0
 43DC 20900100          lds R2,_POWER_LEVEL
 43E0 8215              cp R24,R2
 43E2 20F4              brsh L1040
 43E4           X447:
 43E4                   .dbline 1683
 43E4                   .dbline 1683
 43E4 822D              mov R24,R2
 43E6 8150              subi R24,1
 43E8 80930100          sts _POWER_LEVEL,R24
 43EC                   .dbline 1683
 43EC           L1040:
 43EC                   .dbline 1684
 43EC           ;     switch(POWER_LEVEL)
 43EC 40910100          lds R20,_POWER_LEVEL
 43F0 5527              clr R21
 43F2 4030              cpi R20,0
 43F4 4507              cpc R20,R21
 43F6 C9F0              breq L1045
 43F8           X448:
 43F8 4130              cpi R20,1
 43FA E0E0              ldi R30,0
 43FC 5E07              cpc R21,R30
 43FE 91F1              breq L1046
 4400           X449:
 4400 4230              cpi R20,2
 4402 E0E0              ldi R30,0
 4404 5E07              cpc R21,R30
 4406 09F4              brne X465
 4408 4AC0              xjmp L1047
 440A           X465:
 440A           X450:
 440A 4330              cpi R20,3
 440C E0E0              ldi R30,0
 440E 5E07              cpc R21,R30
 4410 09F4              brne X466
 4412 62C0              xjmp L1048
 4414           X466:
 4414           X451:
 4414 4430              cpi R20,4
 4416 E0E0              ldi R30,0
 4418 5E07              cpc R21,R30
 441A 09F4              brne X467
 441C 7AC0              xjmp L1049
 441E           X467:
 441E           X452:
 441E 4530              cpi R20,5
 4420 E0E0              ldi R30,0
 4422 5E07              cpc R21,R30
 4424 09F4              brne X468
 4426 91C0              xjmp L1050
 4428           X468:
 4428           X453:
 4428 04C1              xjmp L1039
 442A           L1045:
 442A                   .dbline 1686
 442A           ;      {
 442A           ;      case 0:  cut_pic(1,109,0,510,60,599,420,170); break;
 442A 8AEA              ldi R24,170
 442C 90E0              ldi R25,0
 442E 9B87              std y+11,R25
 4430 8A87              std y+10,R24
 4432 84EA              ldi R24,420
 4434 91E0              ldi R25,1
 4436 9987              std y+9,R25
 4438 8887              std y+8,R24
 443A 87E5              ldi R24,599
 443C 92E0              ldi R25,2
 443E 9F83              std y+7,R25
 4440 8E83              std y+6,R24
 4442 8CE3              ldi R24,60
 4444 90E0              ldi R25,0
 4446 9D83              std y+5,R25
 4448 8C83              std y+4,R24
 444A 8EEF              ldi R24,510
 444C 91E0              ldi R25,1
 444E 9B83              std y+3,R25
 4450 8A83              std y+2,R24
 4452 2224              clr R2
 4454 3324              clr R3
 4456 3982              std y+1,R3
 4458 2882              std y+0,R2
 445A 2DE6              ldi R18,109
 445C 01E0              ldi R16,1
 445E 0E940000          xcall _cut_pic
 4462                   .dbline 1686
 4462 E7C0              xjmp L1039
 4464           L1046:
 4464                   .dbline 1687
 4464           ;      case 1:  cut_pic(1,109,60,510,120,599,420,170); break;
 4464 8AEA              ldi R24,170
 4466 90E0              ldi R25,0
 4468 9B87              std y+11,R25
 446A 8A87              std y+10,R24
 446C 84EA              ldi R24,420
 446E 91E0              ldi R25,1
 4470 9987              std y+9,R25
 4472 8887              std y+8,R24
 4474 87E5              ldi R24,599
 4476 92E0              ldi R25,2
 4478 9F83              std y+7,R25
 447A 8E83              std y+6,R24
 447C 88E7              ldi R24,120
 447E 90E0              ldi R25,0
 4480 9D83              std y+5,R25
 4482 8C83              std y+4,R24
 4484 8EEF              ldi R24,510
 4486 91E0              ldi R25,1
 4488 9B83              std y+3,R25
 448A 8A83              std y+2,R24
 448C 8CE3              ldi R24,60
 448E 90E0              ldi R25,0
 4490 9983              std y+1,R25
 4492 8883              std y+0,R24
 4494 2DE6              ldi R18,109
 4496 01E0              ldi R16,1
 4498 0E940000          xcall _cut_pic
 449C                   .dbline 1687
 449C CAC0              xjmp L1039
 449E           L1047:
 449E                   .dbline 1688
 449E           ;      case 2:  cut_pic(1,109,120,510,180,599,420,170); break;
 449E 8AEA              ldi R24,170
 44A0 90E0              ldi R25,0
 44A2 9B87              std y+11,R25
 44A4 8A87              std y+10,R24
 44A6 84EA              ldi R24,420
 44A8 91E0              ldi R25,1
 44AA 9987              std y+9,R25
 44AC 8887              std y+8,R24
 44AE 87E5              ldi R24,599
 44B0 92E0              ldi R25,2
 44B2 9F83              std y+7,R25
 44B4 8E83              std y+6,R24
 44B6 84EB              ldi R24,180
 44B8 90E0              ldi R25,0
 44BA 9D83              std y+5,R25
 44BC 8C83              std y+4,R24
 44BE 8EEF              ldi R24,510
 44C0 91E0              ldi R25,1
 44C2 9B83              std y+3,R25
 44C4 8A83              std y+2,R24
 44C6 88E7              ldi R24,120
 44C8 90E0              ldi R25,0
 44CA 9983              std y+1,R25
 44CC 8883              std y+0,R24
 44CE 2DE6              ldi R18,109
 44D0 01E0              ldi R16,1
 44D2 0E940000          xcall _cut_pic
 44D6                   .dbline 1688
 44D6 ADC0              xjmp L1039
 44D8           L1048:
 44D8                   .dbline 1689
 44D8           ;      case 3:  cut_pic(1,109,180,510,240,599,420,170);  break;
 44D8 8AEA              ldi R24,170
 44DA 90E0              ldi R25,0
 44DC 9B87              std y+11,R25
 44DE 8A87              std y+10,R24
 44E0 84EA              ldi R24,420
 44E2 91E0              ldi R25,1
 44E4 9987              std y+9,R25
 44E6 8887              std y+8,R24
 44E8 87E5              ldi R24,599
 44EA 92E0              ldi R25,2
 44EC 9F83              std y+7,R25
 44EE 8E83              std y+6,R24
 44F0 80EF              ldi R24,240
 44F2 90E0              ldi R25,0
 44F4 9D83              std y+5,R25
 44F6 8C83              std y+4,R24
 44F8 8EEF              ldi R24,510
 44FA 91E0              ldi R25,1
 44FC 9B83              std y+3,R25
 44FE 8A83              std y+2,R24
 4500 84EB              ldi R24,180
 4502 90E0              ldi R25,0
 4504 9983              std y+1,R25
 4506 8883              std y+0,R24
 4508 2DE6              ldi R18,109
 450A 01E0              ldi R16,1
 450C 0E940000          xcall _cut_pic
 4510                   .dbline 1689
 4510 90C0              xjmp L1039
 4512           L1049:
 4512                   .dbline 1690
 4512           ;      case 4:  cut_pic(1,109,240,510,300,599,420,170);  break;
 4512 8AEA              ldi R24,170
 4514 90E0              ldi R25,0
 4516 9B87              std y+11,R25
 4518 8A87              std y+10,R24
 451A 84EA              ldi R24,420
 451C 91E0              ldi R25,1
 451E 9987              std y+9,R25
 4520 8887              std y+8,R24
 4522 87E5              ldi R24,599
 4524 92E0              ldi R25,2
 4526 9F83              std y+7,R25
 4528 8E83              std y+6,R24
 452A 8CE2              ldi R24,300
 452C 91E0              ldi R25,1
 452E 9D83              std y+5,R25
 4530 8C83              std y+4,R24
 4532 8EEF              ldi R24,254
 4534 9B83              std y+3,R25
 4536 8A83              std y+2,R24
 4538 80EF              ldi R24,240
 453A 90E0              ldi R25,0
 453C 9983              std y+1,R25
 453E 8883              std y+0,R24
 4540 2DE6              ldi R18,109
 4542 01E0              ldi R16,1
 4544 0E940000          xcall _cut_pic
 4548                   .dbline 1690
 4548 74C0              xjmp L1039
 454A           L1050:
 454A                   .dbline 1691
 454A           ;      case 5:  cut_pic(1,109,300,510,358,599,420,170);  break;
 454A 8AEA              ldi R24,170
 454C 90E0              ldi R25,0
 454E 9B87              std y+11,R25
 4550 8A87              std y+10,R24
 4552 84EA              ldi R24,420
 4554 91E0              ldi R25,1
 4556 9987              std y+9,R25
 4558 8887              std y+8,R24
 455A 87E5              ldi R24,599
 455C 92E0              ldi R25,2
 455E 9F83              std y+7,R25
 4560 8E83              std y+6,R24
 4562 86E6              ldi R24,358
 4564 91E0              ldi R25,1
 4566 9D83              std y+5,R25
 4568 8C83              std y+4,R24
 456A 8EEF              ldi R24,254
 456C 9B83              std y+3,R25
 456E 8A83              std y+2,R24
 4570 8CE2              ldi R24,44
 4572 9983              std y+1,R25
 4574 8883              std y+0,R24
 4576 2DE6              ldi R18,109
 4578 01E0              ldi R16,1
 457A 0E940000          xcall _cut_pic
 457E                   .dbline 1691
 457E                   .dbline 1692
 457E           ;      default: break;
 457E                   .dbline 1694
 457E           ;      }
 457E           ;   } 
 457E 59C0              xjmp L1039
 4580           L1038:
 4580                   .dbline 1695
 4580           ;   else if(KeyID==2){cut_pic(1,109,720,560,780,600,720,560);} //?????????完??
 4580 80910000          lds R24,_KeyID
 4584 8230              cpi R24,2
 4586 D1F4              brne L1051
 4588           X454:
 4588                   .dbline 1695
 4588                   .dbline 1695
 4588 80E3              ldi R24,560
 458A 92E0              ldi R25,2
 458C 9B87              std y+11,R25
 458E 8A87              std y+10,R24
 4590 80ED              ldi R24,208
 4592 9987              std y+9,R25
 4594 8887              std y+8,R24
 4596 88E5              ldi R24,88
 4598 9F83              std y+7,R25
 459A 8E83              std y+6,R24
 459C 8CE0              ldi R24,780
 459E 93E0              ldi R25,3
 45A0 9D83              std y+5,R25
 45A2 8C83              std y+4,R24
 45A4 80E3              ldi R24,560
 45A6 92E0              ldi R25,2
 45A8 9B83              std y+3,R25
 45AA 8A83              std y+2,R24
 45AC 80ED              ldi R24,208
 45AE 9983              std y+1,R25
 45B0 8883              std y+0,R24
 45B2 2DE6              ldi R18,109
 45B4 01E0              ldi R16,1
 45B6 0E940000          xcall _cut_pic
 45BA                   .dbline 1695
 45BA 3BC0              xjmp L1052
 45BC           L1051:
 45BC                   .dbline 1696
 45BC           ;   else if(KeyID==3)//??????
 45BC 80910000          lds R24,_KeyID
 45C0 8330              cpi R24,3
 45C2 B9F5              brne L1053
 45C4           X455:
 45C4                   .dbline 1697
 45C4           ;   {
 45C4                   .dbline 1698
 45C4           ;     UL_workdate=1-UL_workdate;
 45C4 20900000          lds R2,_UL_workdate
 45C8 81E0              ldi R24,1
 45CA 8219              sub R24,R2
 45CC 80930000          sts _UL_workdate,R24
 45D0                   .dbline 1699
 45D0           ;     if(UL_workdate==1){cut_pic(1,109,420,400,480,460,420,400);}
 45D0 8130              cpi R24,1
 45D2 C1F4              brne L1055
 45D4           X456:
 45D4                   .dbline 1699
 45D4                   .dbline 1699
 45D4 80E9              ldi R24,400
 45D6 91E0              ldi R25,1
 45D8 9B87              std y+11,R25
 45DA 8A87              std y+10,R24
 45DC 84EA              ldi R24,164
 45DE 9987              std y+9,R25
 45E0 8887              std y+8,R24
 45E2 8CEC              ldi R24,204
 45E4 9F83              std y+7,R25
 45E6 8E83              std y+6,R24
 45E8 80EE              ldi R24,224
 45EA 9D83              std y+5,R25
 45EC 8C83              std y+4,R24
 45EE 80E9              ldi R24,144
 45F0 9B83              std y+3,R25
 45F2 8A83              std y+2,R24
 45F4 84EA              ldi R24,164
 45F6 9983              std y+1,R25
 45F8 8883              std y+0,R24
 45FA 2DE6              ldi R18,109
 45FC 01E0              ldi R16,1
 45FE 0E940000          xcall _cut_pic
 4602                   .dbline 1699
 4602 17C0              xjmp L1056
 4604           L1055:
 4604                   .dbline 1700
 4604           ;     else{cut_pic(1,108,420,400,480,460,420,400);}
 4604                   .dbline 1700
 4604 80E9              ldi R24,400
 4606 91E0              ldi R25,1
 4608 9B87              std y+11,R25
 460A 8A87              std y+10,R24
 460C 84EA              ldi R24,164
 460E 9987              std y+9,R25
 4610 8887              std y+8,R24
 4612 8CEC              ldi R24,204
 4614 9F83              std y+7,R25
 4616 8E83              std y+6,R24
 4618 80EE              ldi R24,224
 461A 9D83              std y+5,R25
 461C 8C83              std y+4,R24
 461E 80E9              ldi R24,144
 4620 9B83              std y+3,R25
 4622 8A83              std y+2,R24
 4624 84EA              ldi R24,164
 4626 9983              std y+1,R25
 4628 8883              std y+0,R24
 462A 2CE6              ldi R18,108
 462C 01E0              ldi R16,1
 462E 0E940000          xcall _cut_pic
 4632                   .dbline 1700
 4632           L1056:
 4632                   .dbline 1701
 4632           ;   }
 4632           L1053:
 4632           L1052:
 4632           L1039:
 4632           L1026:
 4632                   .dbline -2
 4632           L1022:
 4632                   .dbline 0 ; func end
 4632 2C96              adiw R28,12
 4634 5991              ld R21,y+
 4636 4991              ld R20,y+
 4638 0895              ret
 463A                   .dbend
 463A                   .dbfunc e ULKeyUP _ULKeyUP fV
                        .even
 463A           _ULKeyUP::
 463A 4A93              st -y,R20
 463C 5A93              st -y,R21
 463E 2C97              sbiw R28,12
 4640                   .dbline -1
 4640                   .dbline 1706
 4640           ; 
 4640           ; }
 4640           ; 
 4640           ; void ULKeyUP(void)
 4640           ; {
 4640                   .dbline 1707
 4640           ;   if(DisPage!=ultrasonicpage) return;
 4640 80910000          lds R24,_DisPage
 4644 8731              cpi R24,23
 4646 09F0              breq L1058
 4648           X469:
 4648                   .dbline 1707
 4648 B4C0              xjmp L1057
 464A           L1058:
 464A                   .dbline 1708
 464A           ;   if(KeyID==0){cut_pic(1,108,420,110,480,168,420,110);}
 464A 20900000          lds R2,_KeyID
 464E 2220              tst R2
 4650 E9F4              brne L1060
 4652           X470:
 4652                   .dbline 1708
 4652                   .dbline 1708
 4652 8EE6              ldi R24,110
 4654 90E0              ldi R25,0
 4656 9B87              std y+11,R25
 4658 8A87              std y+10,R24
 465A 84EA              ldi R24,420
 465C 91E0              ldi R25,1
 465E 9987              std y+9,R25
 4660 8887              std y+8,R24
 4662 88EA              ldi R24,168
 4664 90E0              ldi R25,0
 4666 9F83              std y+7,R25
 4668 8E83              std y+6,R24
 466A 80EE              ldi R24,480
 466C 91E0              ldi R25,1
 466E 9D83              std y+5,R25
 4670 8C83              std y+4,R24
 4672 8EE6              ldi R24,110
 4674 90E0              ldi R25,0
 4676 9B83              std y+3,R25
 4678 8A83              std y+2,R24
 467A 84EA              ldi R24,420
 467C 91E0              ldi R25,1
 467E 9983              std y+1,R25
 4680 8883              std y+0,R24
 4682 2CE6              ldi R18,108
 4684 01E0              ldi R16,1
 4686 0E940000          xcall _cut_pic
 468A                   .dbline 1708
 468A 93C0              xjmp L1061
 468C           L1060:
 468C                   .dbline 1709
 468C           ;   else if(KeyID==1){cut_pic(1,108,420,260,480,320,420,260);} 
 468C 80910000          lds R24,_KeyID
 4690 8130              cpi R24,1
 4692 C1F4              brne L1062
 4694           X471:
 4694                   .dbline 1709
 4694                   .dbline 1709
 4694 84E0              ldi R24,260
 4696 91E0              ldi R25,1
 4698 9B87              std y+11,R25
 469A 8A87              std y+10,R24
 469C 84EA              ldi R24,164
 469E 9987              std y+9,R25
 46A0 8887              std y+8,R24
 46A2 80E4              ldi R24,64
 46A4 9F83              std y+7,R25
 46A6 8E83              std y+6,R24
 46A8 80EE              ldi R24,224
 46AA 9D83              std y+5,R25
 46AC 8C83              std y+4,R24
 46AE 84E0              ldi R24,4
 46B0 9B83              std y+3,R25
 46B2 8A83              std y+2,R24
 46B4 84EA              ldi R24,164
 46B6 9983              std y+1,R25
 46B8 8883              std y+0,R24
 46BA 2CE6              ldi R18,108
 46BC 01E0              ldi R16,1
 46BE 0E940000          xcall _cut_pic
 46C2                   .dbline 1709
 46C2 77C0              xjmp L1063
 46C4           L1062:
 46C4                   .dbline 1710
 46C4           ;   else if((KeyID==2)&&(UL_workdate==0))//???????
 46C4 80910000          lds R24,_KeyID
 46C8 8230              cpi R24,2
 46CA 29F5              brne L1064
 46CC           X472:
 46CC 20900000          lds R2,_UL_workdate
 46D0 2220              tst R2
 46D2 09F5              brne L1064
 46D4           X473:
 46D4                   .dbline 1711
 46D4           ;   {
 46D4                   .dbline 1712
 46D4           ;       cut_pic(1,108,720,560,780,600,720,560);
 46D4 80E3              ldi R24,560
 46D6 92E0              ldi R25,2
 46D8 9B87              std y+11,R25
 46DA 8A87              std y+10,R24
 46DC 80ED              ldi R24,208
 46DE 9987              std y+9,R25
 46E0 8887              std y+8,R24
 46E2 88E5              ldi R24,88
 46E4 9F83              std y+7,R25
 46E6 8E83              std y+6,R24
 46E8 8CE0              ldi R24,780
 46EA 93E0              ldi R25,3
 46EC 9D83              std y+5,R25
 46EE 8C83              std y+4,R24
 46F0 80E3              ldi R24,560
 46F2 92E0              ldi R25,2
 46F4 9B83              std y+3,R25
 46F6 8A83              std y+2,R24
 46F8 80ED              ldi R24,208
 46FA 9983              std y+1,R25
 46FC 8883              std y+0,R24
 46FE 2CE6              ldi R18,108
 4700 01E0              ldi R16,1
 4702 0E940000          xcall _cut_pic
 4706                   .dbline 1713
 4706           ;       DisWelcome();
 4706 0E945302          xcall _DisWelcome
 470A                   .dbline 1714
 470A           ;   DisPage=WELCOMEPAGE;
 470A 2224              clr R2
 470C 20920000          sts _DisPage,R2
 4710                   .dbline 1715
 4710           ;       Send_Data8();
 4710 0E940000          xcall _Send_Data8
 4714                   .dbline 1716
 4714           ;   }
 4714 4EC0              xjmp L1065
 4716           L1064:
 4716                   .dbline 1717
 4716           ;   else if(KeyID==3)//??????
 4716 80910000          lds R24,_KeyID
 471A 8330              cpi R24,3
 471C 09F0              breq X482
 471E 49C0              xjmp L1066
 4720           X482:
 4720           X474:
 4720                   .dbline 1718
 4720           ;   {   
 4720                   .dbline 1719
 4720           ;        if(UL_workdate==1)
 4720 80910000          lds R24,_UL_workdate
 4724 8130              cpi R24,1
 4726 09F0              breq X483
 4728 3FC0              xjmp L1068
 472A           X483:
 472A           X475:
 472A                   .dbline 1720
 472A           ;         {
 472A                   .dbline 1721
 472A           ;      switch(POWER_LEVEL)
 472A 40910100          lds R20,_POWER_LEVEL
 472E 5527              clr R21
 4730 4030              cpi R20,0
 4732 4507              cpc R20,R21
 4734 A9F0              breq L1073
 4736           X476:
 4736 4130              cpi R20,1
 4738 E0E0              ldi R30,0
 473A 5E07              cpc R21,R30
 473C B9F0              breq L1074
 473E           X477:
 473E 4230              cpi R20,2
 4740 E0E0              ldi R30,0
 4742 5E07              cpc R21,R30
 4744 C9F0              breq L1075
 4746           X478:
 4746 4330              cpi R20,3
 4748 E0E0              ldi R30,0
 474A 5E07              cpc R21,R30
 474C D9F0              breq L1076
 474E           X479:
 474E 4430              cpi R20,4
 4750 E0E0              ldi R30,0
 4752 5E07              cpc R21,R30
 4754 E9F0              breq L1077
 4756           X480:
 4756 4530              cpi R20,5
 4758 E0E0              ldi R30,0
 475A 5E07              cpc R21,R30
 475C F9F0              breq L1078
 475E           X481:
 475E 29C0              xjmp L1069
 4760           L1073:
 4760                   .dbline 1723
 4760           ;      {
 4760           ;      case 0:  POWER1_OFF;POWER2_OFF;POWER3_OFF;POWER4_OFF;POWER5_OFF; break;
 4760 D99A              sbi 0x1b,1
 4762                   .dbline 1723
 4762 DA9A              sbi 0x1b,2
 4764                   .dbline 1723
 4764 DB9A              sbi 0x1b,3
 4766                   .dbline 1723
 4766 DC9A              sbi 0x1b,4
 4768                   .dbline 1723
 4768 DD9A              sbi 0x1b,5
 476A                   .dbline 1723
 476A 23C0              xjmp L1069
 476C           L1074:
 476C                   .dbline 1724
 476C           ;      case 1:  POWER1_ON;POWER2_OFF;POWER3_OFF;POWER4_OFF;POWER5_OFF; break;
 476C D998              cbi 0x1b,1
 476E                   .dbline 1724
 476E DA9A              sbi 0x1b,2
 4770                   .dbline 1724
 4770 DB9A              sbi 0x1b,3
 4772                   .dbline 1724
 4772 DC9A              sbi 0x1b,4
 4774                   .dbline 1724
 4774 DD9A              sbi 0x1b,5
 4776                   .dbline 1724
 4776 1DC0              xjmp L1069
 4778           L1075:
 4778                   .dbline 1725
 4778           ;      case 2:  POWER1_OFF;POWER2_ON;POWER3_OFF;POWER4_OFF;POWER5_OFF; break;
 4778 D99A              sbi 0x1b,1
 477A                   .dbline 1725
 477A DA98              cbi 0x1b,2
 477C                   .dbline 1725
 477C DB9A              sbi 0x1b,3
 477E                   .dbline 1725
 477E DC9A              sbi 0x1b,4
 4780                   .dbline 1725
 4780 DD9A              sbi 0x1b,5
 4782                   .dbline 1725
 4782 17C0              xjmp L1069
 4784           L1076:
 4784                   .dbline 1726
 4784           ;      case 3:  POWER1_OFF;POWER2_OFF;POWER3_ON;POWER4_OFF;POWER5_OFF;  break;
 4784 D99A              sbi 0x1b,1
 4786                   .dbline 1726
 4786 DA9A              sbi 0x1b,2
 4788                   .dbline 1726
 4788 DB98              cbi 0x1b,3
 478A                   .dbline 1726
 478A DC9A              sbi 0x1b,4
 478C                   .dbline 1726
 478C DD9A              sbi 0x1b,5
 478E                   .dbline 1726
 478E 11C0              xjmp L1069
 4790           L1077:
 4790                   .dbline 1727
 4790           ;      case 4:  POWER1_OFF;POWER2_OFF;POWER3_OFF;POWER4_ON;POWER5_OFF;  break;
 4790 D99A              sbi 0x1b,1
 4792                   .dbline 1727
 4792 DA9A              sbi 0x1b,2
 4794                   .dbline 1727
 4794 DB9A              sbi 0x1b,3
 4796                   .dbline 1727
 4796 DC98              cbi 0x1b,4
 4798                   .dbline 1727
 4798 DD9A              sbi 0x1b,5
 479A                   .dbline 1727
 479A 0BC0              xjmp L1069
 479C           L1078:
 479C                   .dbline 1728
 479C           ;      case 5:  POWER1_OFF;POWER2_OFF;POWER3_OFF;POWER4_OFF;POWER5_ON;  break;
 479C D99A              sbi 0x1b,1
 479E                   .dbline 1728
 479E DA9A              sbi 0x1b,2
 47A0                   .dbline 1728
 47A0 DB9A              sbi 0x1b,3
 47A2                   .dbline 1728
 47A2 DC9A              sbi 0x1b,4
 47A4                   .dbline 1728
 47A4 DD98              cbi 0x1b,5
 47A6                   .dbline 1728
 47A6                   .dbline 1729
 47A6           ;      default: break;
 47A6                   .dbline 1731
 47A6           ;      }
 47A6           ;         }
 47A6 05C0              xjmp L1069
 47A8           L1068:
 47A8                   .dbline 1733
 47A8           ;         else
 47A8           ;         {
 47A8                   .dbline 1734
 47A8           ;      POWER1_OFF;POWER2_OFF;POWER3_OFF;POWER4_OFF;POWER5_OFF;
 47A8 D99A              sbi 0x1b,1
 47AA                   .dbline 1734
 47AA DA9A              sbi 0x1b,2
 47AC                   .dbline 1734
 47AC DB9A              sbi 0x1b,3
 47AE                   .dbline 1734
 47AE DC9A              sbi 0x1b,4
 47B0                   .dbline 1734
 47B0 DD9A              sbi 0x1b,5
 47B2                   .dbline 1735
 47B2           ;         }
 47B2           L1069:
 47B2                   .dbline 1736
 47B2           ;   }
 47B2           L1066:
 47B2           L1065:
 47B2           L1063:
 47B2           L1061:
 47B2                   .dbline -2
 47B2           L1057:
 47B2                   .dbline 0 ; func end
 47B2 2C96              adiw R28,12
 47B4 5991              ld R21,y+
 47B6 4991              ld R20,y+
 47B8 0895              ret
 47BA                   .dbend
 47BA                   .dbfunc e ParasKeyDown _ParasKeyDown fV
                        .even
 47BA           _ParasKeyDown::
 47BA 4A93              st -y,R20
 47BC 5A93              st -y,R21
 47BE 2C97              sbiw R28,12
 47C0                   .dbline -1
 47C0                   .dbline 1740
 47C0           ; }
 47C0           ; 
 47C0           ; void ParasKeyDown(void)
 47C0           ; {
 47C0                   .dbline 1741
 47C0           ;   if(DisPage!=PARASPAGE) return;
 47C0 80910000          lds R24,_DisPage
 47C4 8D30              cpi R24,13
 47C6 09F0              breq L1080
 47C8           X484:
 47C8                   .dbline 1741
 47C8 94C0              xjmp L1079
 47CA           L1080:
 47CA                   .dbline 1742
 47CA           ;   KeyID=GetKeyID(Paras_Key,4); 
 47CA 24E0              ldi R18,4
 47CC 00E0              ldi R16,<_Paras_Key
 47CE 10E0              ldi R17,>_Paras_Key
 47D0 0E949F03          xcall _GetKeyID
 47D4 00930000          sts _KeyID,R16
 47D8                   .dbline 1743
 47D8           ;   switch(KeyID)
 47D8 402F              mov R20,R16
 47DA 5527              clr R21
 47DC 4030              cpi R20,0
 47DE 4507              cpc R20,R21
 47E0 51F0              breq L1085
 47E2           X485:
 47E2 4130              cpi R20,1
 47E4 E0E0              ldi R30,0
 47E6 5E07              cpc R21,R30
 47E8 79F1              breq L1086
 47EA           X486:
 47EA 4230              cpi R20,2
 47EC E0E0              ldi R30,0
 47EE 5E07              cpc R21,R30
 47F0 09F4              brne X488
 47F2 55C0              xjmp L1087
 47F4           X488:
 47F4           X487:
 47F4 7EC0              xjmp L1083
 47F6           L1085:
 47F6                   .dbline 1746
 47F6           ;   {
 47F6           ;    case 0:
 47F6           ;     WorktimeSet = 1-WorktimeSet;
 47F6 20900000          lds R2,_WorktimeSet
 47FA 81E0              ldi R24,1
 47FC 8219              sub R24,R2
 47FE 80930000          sts _WorktimeSet,R24
 4802                   .dbline 1747
 4802           ;     cut_pic(0,21,18+(WorktimeSet*272),372,95+(WorktimeSet*272),423,318,272);
 4802 80E1              ldi R24,272
 4804 91E0              ldi R25,1
 4806 9B87              std y+11,R25
 4808 8A87              std y+10,R24
 480A 8EE3              ldi R24,62
 480C 9987              std y+9,R25
 480E 8887              std y+8,R24
 4810 87EA              ldi R24,167
 4812 9F83              std y+7,R25
 4814 8E83              std y+6,R24
 4816 20910000          lds R18,_WorktimeSet
 481A 3327              clr R19
 481C 00E1              ldi R16,272
 481E 11E0              ldi R17,1
 4820 0E940000          xcall empy16s
 4824 C801              movw R24,R16
 4826 815A              subi R24,161  ; offset = 95
 4828 9F4F              sbci R25,255
 482A 9D83              std y+5,R25
 482C 8C83              std y+4,R24
 482E 84E7              ldi R24,372
 4830 91E0              ldi R25,1
 4832 9B83              std y+3,R25
 4834 8A83              std y+2,R24
 4836 C801              movw R24,R16
 4838 4296              adiw R24,18
 483A 9983              std y+1,R25
 483C 8883              std y+0,R24
 483E 25E1              ldi R18,21
 4840 0027              clr R16
 4842 0E940000          xcall _cut_pic
 4846                   .dbline 1748
 4846           ;    break;
 4846 55C0              xjmp L1083
 4848           L1086:
 4848                   .dbline 1750
 4848           ;    case 1:
 4848           ;     PressureSet = 1-PressureSet;
 4848 20900000          lds R2,_PressureSet
 484C 81E0              ldi R24,1
 484E 8219              sub R24,R2
 4850 80930000          sts _PressureSet,R24
 4854                   .dbline 1751
 4854           ;     cut_pic(0,21,96+(PressureSet*272),372,172+(PressureSet*272),423,396,272);   
 4854 80E1              ldi R24,272
 4856 91E0              ldi R25,1
 4858 9B87              std y+11,R25
 485A 8A87              std y+10,R24
 485C 8CE8              ldi R24,140
 485E 9987              std y+9,R25
 4860 8887              std y+8,R24
 4862 87EA              ldi R24,167
 4864 9F83              std y+7,R25
 4866 8E83              std y+6,R24
 4868 20910000          lds R18,_PressureSet
 486C 3327              clr R19
 486E 00E1              ldi R16,272
 4870 11E0              ldi R17,1
 4872 0E940000          xcall empy16s
 4876 A801              movw R20,R16
 4878 CA01              movw R24,R20
 487A 8455              subi R24,84  ; offset = 172
 487C 9F4F              sbci R25,255
 487E 9D83              std y+5,R25
 4880 8C83              std y+4,R24
 4882 84E7              ldi R24,372
 4884 91E0              ldi R25,1
 4886 9B83              std y+3,R25
 4888 8A83              std y+2,R24
 488A CA01              movw R24,R20
 488C 805A              subi R24,160  ; offset = 96
 488E 9F4F              sbci R25,255
 4890 9983              std y+1,R25
 4892 8883              std y+0,R24
 4894 25E1              ldi R18,21
 4896 0027              clr R16
 4898 0E940000          xcall _cut_pic
 489C                   .dbline 1752
 489C           ;    break;
 489C 2AC0              xjmp L1083
 489E           L1087:
 489E                   .dbline 1754
 489E           ;    case 2:
 489E           ;     ClockSet = 1-ClockSet;
 489E 20900000          lds R2,_ClockSet
 48A2 81E0              ldi R24,1
 48A4 8219              sub R24,R2
 48A6 80930000          sts _ClockSet,R24
 48AA                   .dbline 1755
 48AA           ;     cut_pic(0,21,173+(ClockSet*272),372,249+(ClockSet*272),423,473,272);      
 48AA 80E1              ldi R24,272
 48AC 91E0              ldi R25,1
 48AE 9B87              std y+11,R25
 48B0 8A87              std y+10,R24
 48B2 89ED              ldi R24,217
 48B4 9987              std y+9,R25
 48B6 8887              std y+8,R24
 48B8 87EA              ldi R24,167
 48BA 9F83              std y+7,R25
 48BC 8E83              std y+6,R24
 48BE 20910000          lds R18,_ClockSet
 48C2 3327              clr R19
 48C4 00E1              ldi R16,272
 48C6 11E0              ldi R17,1
 48C8 0E940000          xcall empy16s
 48CC A801              movw R20,R16
 48CE CA01              movw R24,R20
 48D0 8750              subi R24,7  ; offset = 249
 48D2 9F4F              sbci R25,255
 48D4 9D83              std y+5,R25
 48D6 8C83              std y+4,R24
 48D8 84E7              ldi R24,372
 48DA 91E0              ldi R25,1
 48DC 9B83              std y+3,R25
 48DE 8A83              std y+2,R24
 48E0 CA01              movw R24,R20
 48E2 8355              subi R24,83  ; offset = 173
 48E4 9F4F              sbci R25,255
 48E6 9983              std y+1,R25
 48E8 8883              std y+0,R24
 48EA 25E1              ldi R18,21
 48EC 0027              clr R16
 48EE 0E940000          xcall _cut_pic
 48F2                   .dbline 1756
 48F2           ;    break;
 48F2                   .dbline 1757
 48F2           ;    default :break;
 48F2           L1083:
 48F2                   .dbline -2
 48F2           L1079:
 48F2                   .dbline 0 ; func end
 48F2 2C96              adiw R28,12
 48F4 5991              ld R21,y+
 48F6 4991              ld R20,y+
 48F8 0895              ret
 48FA                   .dbend
 48FA                   .dbfunc e ParasKeyUp _ParasKeyUp fV
                        .even
 48FA           _ParasKeyUp::
 48FA                   .dbline -1
 48FA                   .dbline 1761
 48FA           ;   }
 48FA           ; }
 48FA           ; void ParasKeyUp(void)
 48FA           ; {
 48FA                   .dbline 1762
 48FA           ;   if(DisPage!=PARASPAGE) return;
 48FA 80910000          lds R24,_DisPage
 48FE 8D30              cpi R24,13
 4900 09F0              breq L1089
 4902           X489:
 4902                   .dbline 1762
 4902 0AC0              xjmp L1088
 4904           L1089:
 4904                   .dbline 1763
 4904           ;   if(KeyID==3)
 4904 80910000          lds R24,_KeyID
 4908 8330              cpi R24,3
 490A 31F4              brne L1091
 490C           X490:
 490C                   .dbline 1764
 490C           ;   {
 490C                   .dbline 1768
 490C           ;     //EEPROMWriteBytes(PressureAddr,&PressureSet,1);
 490C           ;         //EEPROMWriteBytes(ClockSetAddr,&ClockSet,1);
 490C           ;         //EEPROMWriteBytes(WorktimeAddr,&WorktimeSet,1);
 490C           ;     dis_pic(19);
 490C 03E1              ldi R16,19
 490E 0E940000          xcall _dis_pic
 4912                   .dbline 1769
 4912           ;     DisPage=SYSTEMPAGE;
 4912 8AE0              ldi R24,10
 4914 80930000          sts _DisPage,R24
 4918                   .dbline 1770
 4918           ;   }
 4918           L1091:
 4918                   .dbline -2
 4918           L1088:
 4918                   .dbline 0 ; func end
 4918 0895              ret
 491A                   .dbend
 491A                   .dbfunc e VersionKeyDown _VersionKeyDown fV
                        .even
 491A           _VersionKeyDown::
 491A 2C97              sbiw R28,12
 491C                   .dbline -1
 491C                   .dbline 1773
 491C           ; }
 491C           ; void VersionKeyDown(void)
 491C           ; {
 491C                   .dbline 1774
 491C           ;   if(DisPage!=VERSIONPAGE) return;
 491C 80910000          lds R24,_DisPage
 4920 8F30              cpi R24,15
 4922 09F0              breq L1094
 4924           X491:
 4924                   .dbline 1774
 4924 47C0              xjmp L1093
 4926           L1094:
 4926                   .dbline 1775
 4926           ;   KeyID=GetKeyID(VerSet_Key,3); 
 4926 23E0              ldi R18,3
 4928 00E0              ldi R16,<_VerSet_Key
 492A 10E0              ldi R17,>_VerSet_Key
 492C 0E949F03          xcall _GetKeyID
 4930 00930000          sts _KeyID,R16
 4934                   .dbline 1776
 4934           ;   if(KeyID<2)
 4934 802F              mov R24,R16
 4936 0230              cpi R16,2
 4938 E8F5              brsh L1096
 493A           X492:
 493A                   .dbline 1777
 493A           ;   {
 493A                   .dbline 1778
 493A           ;     VerSet=KeyID;
 493A 282E              mov R2,R24
 493C 20920000          sts _VerSet,R2
 4940                   .dbline 1779
 4940           ;    if(VerSet == TRUE)
 4940 0130              cpi R16,1
 4942 E9F4              brne L1098
 4944           X493:
 4944                   .dbline 1780
 4944           ;    cut_pic(0,24,290,40,539,139,320,240);
 4944 80EF              ldi R24,240
 4946 90E0              ldi R25,0
 4948 9B87              std y+11,R25
 494A 8A87              std y+10,R24
 494C 80E4              ldi R24,320
 494E 91E0              ldi R25,1
 4950 9987              std y+9,R25
 4952 8887              std y+8,R24
 4954 8BE8              ldi R24,139
 4956 90E0              ldi R25,0
 4958 9F83              std y+7,R25
 495A 8E83              std y+6,R24
 495C 8BE1              ldi R24,539
 495E 92E0              ldi R25,2
 4960 9D83              std y+5,R25
 4962 8C83              std y+4,R24
 4964 88E2              ldi R24,40
 4966 90E0              ldi R25,0
 4968 9B83              std y+3,R25
 496A 8A83              std y+2,R24
 496C 82E2              ldi R24,290
 496E 91E0              ldi R25,1
 4970 9983              std y+1,R25
 4972 8883              std y+0,R24
 4974 28E1              ldi R18,24
 4976 0027              clr R16
 4978 0E940000          xcall _cut_pic
 497C 1BC0              xjmp L1099
 497E           L1098:
 497E                   .dbline 1782
 497E           ;    else
 497E           ;    cut_pic(0,24,20,40,269,139,320,240);
 497E 80EF              ldi R24,240
 4980 90E0              ldi R25,0
 4982 9B87              std y+11,R25
 4984 8A87              std y+10,R24
 4986 80E4              ldi R24,320
 4988 91E0              ldi R25,1
 498A 9987              std y+9,R25
 498C 8887              std y+8,R24
 498E 8BE8              ldi R24,139
 4990 90E0              ldi R25,0
 4992 9F83              std y+7,R25
 4994 8E83              std y+6,R24
 4996 8DE0              ldi R24,269
 4998 91E0              ldi R25,1
 499A 9D83              std y+5,R25
 499C 8C83              std y+4,R24
 499E 88E2              ldi R24,40
 49A0 90E0              ldi R25,0
 49A2 9B83              std y+3,R25
 49A4 8A83              std y+2,R24
 49A6 84E1              ldi R24,20
 49A8 9983              std y+1,R25
 49AA 8883              std y+0,R24
 49AC 28E1              ldi R18,24
 49AE 0027              clr R16
 49B0 0E940000          xcall _cut_pic
 49B4           L1099:
 49B4                   .dbline 1783
 49B4           ;   }
 49B4           L1096:
 49B4                   .dbline -2
 49B4           L1093:
 49B4                   .dbline 0 ; func end
 49B4 2C96              adiw R28,12
 49B6 0895              ret
 49B8                   .dbend
 49B8                   .dbfunc e VersionKeyUp _VersionKeyUp fV
                        .even
 49B8           _VersionKeyUp::
 49B8                   .dbline -1
 49B8                   .dbline 1786
 49B8           ; }
 49B8           ; void VersionKeyUp(void)
 49B8           ; {
 49B8                   .dbline 1787
 49B8           ;   if(DisPage!=VERSIONPAGE) return;
 49B8 80910000          lds R24,_DisPage
 49BC 8F30              cpi R24,15
 49BE 09F0              breq L1101
 49C0           X494:
 49C0                   .dbline 1787
 49C0 0AC0              xjmp L1100
 49C2           L1101:
 49C2                   .dbline 1788
 49C2           ;   if(KeyID==2)
 49C2 80910000          lds R24,_KeyID
 49C6 8230              cpi R24,2
 49C8 31F4              brne L1103
 49CA           X495:
 49CA                   .dbline 1789
 49CA           ;   {
 49CA                   .dbline 1791
 49CA           ;     //EEPROMWriteBytes(VerDisAddr,&VerSet,1);
 49CA           ;     dis_pic(19);
 49CA 03E1              ldi R16,19
 49CC 0E940000          xcall _dis_pic
 49D0                   .dbline 1792
 49D0           ;     DisPage=SYSTEMPAGE;
 49D0 8AE0              ldi R24,10
 49D2 80930000          sts _DisPage,R24
 49D6                   .dbline 1793
 49D6           ;   }
 49D6           L1103:
 49D6                   .dbline -2
 49D6           L1100:
 49D6                   .dbline 0 ; func end
 49D6 0895              ret
 49D8                   .dbend
 49D8                   .dbfunc e ResetKeyDown _ResetKeyDown fV
                        .even
 49D8           _ResetKeyDown::
 49D8 4A93              st -y,R20
 49DA 5A93              st -y,R21
 49DC 2C97              sbiw R28,12
 49DE                   .dbline -1
 49DE                   .dbline 1796
 49DE           ; }
 49DE           ; void ResetKeyDown(void)
 49DE           ; {
 49DE                   .dbline 1797
 49DE           ;   if(DisPage!=RESETPAGE) return;
 49DE 80910000          lds R24,_DisPage
 49E2 8231              cpi R24,18
 49E4 09F0              breq L1106
 49E6           X496:
 49E6                   .dbline 1797
 49E6 44C0              xjmp L1105
 49E8           L1106:
 49E8                   .dbline 1798
 49E8           ;   KeyID=GetKeyID(Reset_Key,3); 
 49E8 23E0              ldi R18,3
 49EA 00E0              ldi R16,<_Reset_Key
 49EC 10E0              ldi R17,>_Reset_Key
 49EE 0E949F03          xcall _GetKeyID
 49F2 00930000          sts _KeyID,R16
 49F6                   .dbline 1799
 49F6           ;   switch(KeyID)
 49F6 402F              mov R20,R16
 49F8 5527              clr R21
 49FA 4030              cpi R20,0
 49FC 4507              cpc R20,R21
 49FE 29F0              breq L1111
 4A00           X497:
 4A00 4130              cpi R20,1
 4A02 E0E0              ldi R30,0
 4A04 5E07              cpc R21,R30
 4A06 D9F0              breq L1112
 4A08           X498:
 4A08 33C0              xjmp L1109
 4A0A           L1111:
 4A0A                   .dbline 1801
 4A0A           ;   {
 4A0A           ;    case 0:   cut_pic(0,26,25,196,118,257,325,255);
 4A0A 8FEF              ldi R24,255
 4A0C 90E0              ldi R25,0
 4A0E 9B87              std y+11,R25
 4A10 8A87              std y+10,R24
 4A12 85E4              ldi R24,325
 4A14 91E0              ldi R25,1
 4A16 9987              std y+9,R25
 4A18 8887              std y+8,R24
 4A1A 81E0              ldi R24,1
 4A1C 9F83              std y+7,R25
 4A1E 8E83              std y+6,R24
 4A20 86E7              ldi R24,118
 4A22 90E0              ldi R25,0
 4A24 9D83              std y+5,R25
 4A26 8C83              std y+4,R24
 4A28 84EC              ldi R24,196
 4A2A 9B83              std y+3,R25
 4A2C 8A83              std y+2,R24
 4A2E 89E1              ldi R24,25
 4A30 9983              std y+1,R25
 4A32 8883              std y+0,R24
 4A34 2AE1              ldi R18,26
 4A36 0027              clr R16
 4A38 0E940000          xcall _cut_pic
 4A3C                   .dbline 1802
 4A3C           ;    break;
 4A3C 19C0              xjmp L1109
 4A3E           L1112:
 4A3E                   .dbline 1803
 4A3E           ;    case 1:   cut_pic(0,26,155,196,248,257,455,255);
 4A3E 8FEF              ldi R24,255
 4A40 90E0              ldi R25,0
 4A42 9B87              std y+11,R25
 4A44 8A87              std y+10,R24
 4A46 87EC              ldi R24,455
 4A48 91E0              ldi R25,1
 4A4A 9987              std y+9,R25
 4A4C 8887              std y+8,R24
 4A4E 81E0              ldi R24,1
 4A50 9F83              std y+7,R25
 4A52 8E83              std y+6,R24
 4A54 88EF              ldi R24,248
 4A56 90E0              ldi R25,0
 4A58 9D83              std y+5,R25
 4A5A 8C83              std y+4,R24
 4A5C 84EC              ldi R24,196
 4A5E 9B83              std y+3,R25
 4A60 8A83              std y+2,R24
 4A62 8BE9              ldi R24,155
 4A64 9983              std y+1,R25
 4A66 8883              std y+0,R24
 4A68 2AE1              ldi R18,26
 4A6A 0027              clr R16
 4A6C 0E940000          xcall _cut_pic
 4A70                   .dbline 1804
 4A70           ;    break;   
 4A70                   .dbline 1805
 4A70           ;    default: break;
 4A70           L1109:
 4A70                   .dbline -2
 4A70           L1105:
 4A70                   .dbline 0 ; func end
 4A70 2C96              adiw R28,12
 4A72 5991              ld R21,y+
 4A74 4991              ld R20,y+
 4A76 0895              ret
 4A78                   .dbend
 4A78                   .dbfunc e ResetKeyUp _ResetKeyUp fV
 4A78           ;              i -> R20
                        .even
 4A78           _ResetKeyUp::
 4A78 4A93              st -y,R20
 4A7A                   .dbline -1
 4A7A                   .dbline 1809
 4A7A           ;   }
 4A7A           ; }
 4A7A           ; void ResetKeyUp(void)
 4A7A           ; {
 4A7A                   .dbline 1811
 4A7A           ;   unsigned char i;
 4A7A           ;   if(DisPage!=RESETPAGE) return;
 4A7A 80910000          lds R24,_DisPage
 4A7E 8231              cpi R24,18
 4A80 09F0              breq L1114
 4A82           X499:
 4A82                   .dbline 1811
 4A82 2FC0              xjmp L1113
 4A84           L1114:
 4A84                   .dbline 1812
 4A84           ;   if(KeyID==1)
 4A84 80910000          lds R24,_KeyID
 4A88 8130              cpi R24,1
 4A8A 09F5              brne L1116
 4A8C           X500:
 4A8C                   .dbline 1813
 4A8C           ;   {
 4A8C                   .dbline 1814
 4A8C           ;     VerSet = TRUE;
 4A8C 81E0              ldi R24,1
 4A8E 80930000          sts _VerSet,R24
 4A92                   .dbline 1817
 4A92           ;       //EEPROMWriteBytes(VerDisAddr,&VerSet,1); 
 4A92           ;       
 4A92           ;       WorktimeSet = TRUE;
 4A92 80930000          sts _WorktimeSet,R24
 4A96                   .dbline 1820
 4A96           ;       //EEPROMWriteBytes(WorktimeAddr,&WorktimeSet,1);
 4A96           ;       
 4A96           ;     PressureSet = TRUE;
 4A96 80930000          sts _PressureSet,R24
 4A9A                   .dbline 1823
 4A9A           ;       //EEPROMWriteBytes(PressureAddr,&PressureSet,1);
 4A9A           ; 
 4A9A           ;     BackSet=0;
 4A9A 2224              clr R2
 4A9C 20920000          sts _BackSet,R2
 4AA0                   .dbline 1826
 4AA0           ;       //EEPROMWriteBytes(BackSetAddr,&BackSet,1);
 4AA0           ; 
 4AA0           ;     SoundSet=10;
 4AA0 8AE0              ldi R24,10
 4AA2 80930000          sts _SoundSet,R24
 4AA6                   .dbline 1829
 4AA6           ;       //EEPROMWriteBytes(SoundSetAddr,&SoundSet,1);
 4AA6           ; 
 4AA6           ;     ClockSet=TRUE;
 4AA6 81E0              ldi R24,1
 4AA8 80930000          sts _ClockSet,R24
 4AAC                   .dbline 1832
 4AAC           ;       //EEPROMWriteBytes(ClockSetAddr,&ClockSet,1);
 4AAC           ; 
 4AAC           ;     Language=0;
 4AAC 20920000          sts _Language,R2
 4AB0                   .dbline 1835
 4AB0           ;       //EEPROMWriteBytes(LanguageAddr,&Language,1);
 4AB0           ; 
 4AB0           ;     CardSet=FALSE;
 4AB0 20920000          sts _CardSet,R2
 4AB4                   .dbline 1837
 4AB4           ;       //EEPROMWriteBytes(CardSetAddr,&CardSet,1);
 4AB4           ;       for(i=0;i<4;i++)
 4AB4 4427              clr R20
 4AB6 09C0              xjmp L1121
 4AB8           L1118:
 4AB8                   .dbline 1838
 4AB8           ;       {
 4AB8                   .dbline 1839
 4AB8           ;               Function_Buf[i] = 1;
 4AB8 80E0              ldi R24,<_Function_Buf
 4ABA 90E0              ldi R25,>_Function_Buf
 4ABC E42F              mov R30,R20
 4ABE FF27              clr R31
 4AC0 E80F              add R30,R24
 4AC2 F91F              adc R31,R25
 4AC4 81E0              ldi R24,1
 4AC6 8083              std z+0,R24
 4AC8                   .dbline 1840
 4AC8           ;       }
 4AC8           L1119:
 4AC8                   .dbline 1837
 4AC8 4395              inc R20
 4ACA           L1121:
 4ACA                   .dbline 1837
 4ACA 4430              cpi R20,4
 4ACC A8F3              brlo L1118
 4ACE           X501:
 4ACE                   .dbline 1842
 4ACE           ;    // EEPROMWriteBytes(FunctionAddr,Function_Buf,9);
 4ACE           ;   }
 4ACE           L1116:
 4ACE                   .dbline 1843
 4ACE           ;   if(KeyID<3)
 4ACE 80910000          lds R24,_KeyID
 4AD2 8330              cpi R24,3
 4AD4 30F4              brsh L1122
 4AD6           X502:
 4AD6                   .dbline 1844
 4AD6           ;   {
 4AD6                   .dbline 1845
 4AD6           ;     dis_pic(19);
 4AD6 03E1              ldi R16,19
 4AD8 0E940000          xcall _dis_pic
 4ADC                   .dbline 1846
 4ADC           ;     DisPage=SYSTEMPAGE;
 4ADC 8AE0              ldi R24,10
 4ADE 80930000          sts _DisPage,R24
 4AE2                   .dbline 1847
 4AE2           ;   }
 4AE2           L1122:
 4AE2                   .dbline -2
 4AE2           L1113:
 4AE2                   .dbline 0 ; func end
 4AE2 4991              ld R20,y+
 4AE4 0895              ret
 4AE6                   .dbsym r i 20 c
 4AE6                   .dbend
                        .area bss(ram, con, rel)
 0000                   .dbfile E:\1.JD_Project\21.Android-360\1.Android-360Code\App\app.c
 0000           L1125:
 0000                   .blkb 2
                        .area text(rom, con, rel)
 4AE6                   .dbfile E:\1.JD_Project\21.Android-360\1.Android-360Code\App\app.c
 4AE6                   .dbfunc e Key _Key fV
                        .area  func_lit(rom, con, rel)
 0000           L1162:
 0000 DB25              .word `L1141
 0002 DE25              .word `L1142
 0004 E125              .word `L1143
 0006 7E26              .word `L1137
 0008 E425              .word `L1145
 000A E725              .word `L1146
 000C EA25              .word `L1147
 000E ED25              .word `L1148
 0010 F025              .word `L1149
 0012 F925              .word `L1153
 0014 FC25              .word `L1154
 0016 FF25              .word `L1155
 0018 0226              .word `L1156
 001A F325              .word `L1150
 001C 1226              .word `L1138
 001E F525              .word `L1151
 0020 0526              .word `L1157
 0022 0826              .word `L1158
 0024 F725              .word `L1152
 0026 0B26              .word `L1159
 0028 1226              .word `L1138
 002A 0E26              .word `L1160
 002C 1226              .word `L1138
 002E 1026              .word `L1161
                        .area text(rom, con, rel)
                        .area  func_lit(rom, con, rel)
 0030           L1193:
 0030 4226              .word `L1172
 0032 4526              .word `L1173
 0034 4826              .word `L1174
 0036 7E26              .word `L1168
 0038 4B26              .word `L1176
 003A 4E26              .word `L1177
 003C 5126              .word `L1178
 003E 5426              .word `L1179
 0040 5726              .word `L1180
 0042 6326              .word `L1185
 0044 6626              .word `L1186
 0046 6926              .word `L1187
 0048 5A26              .word `L1181
 004A 5D26              .word `L1182
 004C 7926              .word `L1169
 004E 5F26              .word `L1183
 0050 6C26              .word `L1188
 0052 6F26              .word `L1189
 0054 6126              .word `L1184
 0056 7226              .word `L1190
 0058 7926              .word `L1169
 005A 7526              .word `L1191
 005C 7926              .word `L1169
 005E 7726              .word `L1192
                        .area text(rom, con, rel)
 4AE6                   .dbsym s enter_mode_num L1125 i
                        .even
 4AE6           _Key::
 4AE6 4A93              st -y,R20
 4AE8 5A93              st -y,R21
 4AEA                   .dbline -1
 4AEA                   .dbline 1850
 4AEA           ; }
 4AEA           ; void Key(void)
 4AEA           ; {
 4AEA                   .dbline 1855
 4AEA           ;   static unsigned int enter_mode_num;
 4AEA           ; 
 4AEA           ; 
 4AEA           ;   
 4AEA           ;   if((DisPage==WELCOMEPAGE)&&(Function_Count == 0))
 4AEA 20900000          lds R2,_DisPage
 4AEE 2220              tst R2
 4AF0 91F5              brne L1126
 4AF2           X503:
 4AF2 20900000          lds R2,_Function_Count
 4AF6 2220              tst R2
 4AF8 71F5              brne L1126
 4AFA           X504:
 4AFA                   .dbline 1856
 4AFA           ;   {
 4AFA                   .dbline 1857
 4AFA           ;       if(enter_mode_num<50)
 4AFA 80910000          lds R24,L1125
 4AFE 90910100          lds R25,L1125+1
 4B02 8233              cpi R24,50
 4B04 E0E0              ldi R30,0
 4B06 9E07              cpc R25,R30
 4B08 70F4              brsh L1128
 4B0A           X505:
 4B0A                   .dbline 1858
 4B0A           ;       {
 4B0A                   .dbline 1859
 4B0A           ;         delay_ms(1);
 4B0A 01E0              ldi R16,1
 4B0C 10E0              ldi R17,0
 4B0E 0E940000          xcall _delay_ms
 4B12                   .dbline 1860
 4B12           ;         enter_mode_num++;     
 4B12 80910000          lds R24,L1125
 4B16 90910100          lds R25,L1125+1
 4B1A 0196              adiw R24,1
 4B1C 90930100          sts L1125+1,R25
 4B20 80930000          sts L1125,R24
 4B24                   .dbline 1861
 4B24           ;       }  
 4B24 18C0              xjmp L1129
 4B26           L1128:
 4B26                   .dbline 1862
 4B26           ;       else if(enter_mode_num==50)
 4B26 80910000          lds R24,L1125
 4B2A 90910100          lds R25,L1125+1
 4B2E 8233              cpi R24,50
 4B30 E0E0              ldi R30,0
 4B32 9E07              cpc R25,R30
 4B34 81F4              brne L1130
 4B36           X506:
 4B36                   .dbline 1863
 4B36           ;       {
 4B36                   .dbline 1864
 4B36           ;           Function_Ptr=0;
 4B36 2224              clr R2
 4B38 20920000          sts _Function_Ptr,R2
 4B3C                   .dbline 1865
 4B3C           ;         DisPage=WORKPAGE;
 4B3C 85E1              ldi R24,21
 4B3E 80930000          sts _DisPage,R24
 4B42                   .dbline 1866
 4B42           ;         DisWork();
 4B42 0E949C03          xcall _DisWork
 4B46                   .dbline 1867
 4B46           ;       Send_Data8();
 4B46 0E940000          xcall _Send_Data8
 4B4A                   .dbline 1868
 4B4A           ;         enter_mode_num = 51;  
 4B4A 83E3              ldi R24,51
 4B4C 90E0              ldi R25,0
 4B4E 90930100          sts L1125+1,R25
 4B52 80930000          sts L1125,R24
 4B56                   .dbline 1869
 4B56           ;       }
 4B56           L1130:
 4B56           L1129:
 4B56                   .dbline 1870
 4B56           ;   }
 4B56           L1126:
 4B56                   .dbline 1872
 4B56           ;   
 4B56           ;   if(Touch_Event==TOUCH_NULL)
 4B56 20900000          lds R2,_Touch_Event
 4B5A 2220              tst R2
 4B5C 39F4              brne L1132
 4B5E           X507:
 4B5E                   .dbline 1873
 4B5E           ;   {
 4B5E                   .dbline 1874
 4B5E           ;     if(Touch_Buf==TOUCH_DOWN) 
 4B5E 80910000          lds R24,_Touch_Buf
 4B62 8130              cpi R24,1
 4B64 19F4              brne L1134
 4B66           X508:
 4B66                   .dbline 1875
 4B66           ;       {
 4B66                   .dbline 1876
 4B66           ;         Touch_Event=TOUCH_DOWN;
 4B66 81E0              ldi R24,1
 4B68 80930000          sts _Touch_Event,R24
 4B6C                   .dbline 1877
 4B6C           ;       }
 4B6C           L1134:
 4B6C                   .dbline 1878
 4B6C           ;   }
 4B6C           L1132:
 4B6C                   .dbline 1879
 4B6C           ;   if(Touch_Event==TOUCH_DOWN)
 4B6C 80910000          lds R24,_Touch_Event
 4B70 8130              cpi R24,1
 4B72 09F0              breq X519
 4B74 59C0              xjmp L1136
 4B76           X519:
 4B76           X509:
 4B76                   .dbline 1880
 4B76           ;   {
 4B76                   .dbline 1881
 4B76           ;     Sound_Count=SoundSet;
 4B76 20900000          lds R2,_SoundSet
 4B7A 20920000          sts _Sound_Count,R2
 4B7E                   .dbline 1882
 4B7E           ;     Touch_Event=TOUCH_KEEP;   
 4B7E 82E0              ldi R24,2
 4B80 80930000          sts _Touch_Event,R24
 4B84                   .dbline 1883
 4B84           ;       switch(DisPage)
 4B84 40910000          lds R20,_DisPage
 4B88 5527              clr R21
 4B8A 4030              cpi R20,0
 4B8C E0E0              ldi R30,0
 4B8E 5E07              cpc R21,R30
 4B90 0CF4              brge X520
 4B92 48C0              xjmp L1138
 4B94           X520:
 4B94           X510:
 4B94 87E1              ldi R24,23
 4B96 90E0              ldi R25,0
 4B98 8417              cp R24,R20
 4B9A 9507              cpc R25,R21
 4B9C 0CF4              brge X521
 4B9E 42C0              xjmp L1138
 4BA0           X521:
 4BA0           X511:
 4BA0 80E0              ldi R24,<L1162
 4BA2 90E0              ldi R25,>L1162
 4BA4 FA01              movw R30,R20
 4BA6 EE0F              lsl R30
 4BA8 FF1F              rol R31
 4BAA E80F              add R30,R24
 4BAC F91F              adc R31,R25
 4BAE 2790              elpm R2,Z+
 4BB0 3690              elpm R3,Z
 4BB2 F101              movw R30,R2
 4BB4 0994               ijmp
 4BB6           X512:
 4BB6                   .dbfile E:\1.JD_Project\21.Android-360\1.Android-360Code\App\app.c
 4BB6                   .dbline 1884
 4BB6           ;       {
 4BB6           L1141:
 4BB6                   .dbline 1885
 4BB6           ;         case WELCOMEPAGE: MainKeyDown();break;//主界面功能选择
 4BB6 0E94D003          xcall _MainKeyDown
 4BBA                   .dbline 1885
 4BBA A0C0              xjmp L1137
 4BBC           L1142:
 4BBC                   .dbline 1886
 4BBC           ;         case STARTPAGE:   StartKeyDown();break;//主界面设置选项
 4BBC 0E949D04          xcall _StartKeyDown
 4BC0                   .dbline 1886
 4BC0 9DC0              xjmp L1137
 4BC2           L1143:
 4BC2                   .dbline 1887
 4BC2           ;         case TIMEPAGE:    TimeKeyDown();break;//时间设置
 4BC2 0E943408          xcall _TimeKeyDown
 4BC6                   .dbline 1887
 4BC6 9AC0              xjmp L1137
 4BC8           L1145:
 4BC8                   .dbline 1889
 4BC8           ;         case TOUCHPAGE:   break;
 4BC8           ;         case SOUNDPAGE:   SoundKeyDown();break;//声音设置
 4BC8 0E946D0B          xcall _SoundKeyDown
 4BCC                   .dbline 1889
 4BCC 97C0              xjmp L1137
 4BCE           L1146:
 4BCE                   .dbline 1890
 4BCE           ;         case LANGUAGEPAGE:LanguageKeyDown();break;//语言设置界面
 4BCE 0E940C0C          xcall _LanguageKeyDown
 4BD2                   .dbline 1890
 4BD2 94C0              xjmp L1137
 4BD4           L1147:
 4BD4                   .dbline 1891
 4BD4           ;         case BACKPAGE:    BackKeyDown();break;//背景设置
 4BD4 0E94960C          xcall _BackKeyDown
 4BD8                   .dbline 1891
 4BD8 91C0              xjmp L1137
 4BDA           L1148:
 4BDA                   .dbline 1892
 4BDA           ;         case USBPAGE:     USBKeyDown();break;//
 4BDA 0E944E0D          xcall _USBKeyDown
 4BDE                   .dbline 1892
 4BDE 8EC0              xjmp L1137
 4BE0           L1149:
 4BE0                   .dbline 1893
 4BE0           ;         case CARDPAGE:    CardKeyDown();break;
 4BE0 0E94DC0D          xcall _CardKeyDown
 4BE4                   .dbline 1893
 4BE4 8BC0              xjmp L1137
 4BE6           L1150:
 4BE6                   .dbline 1894
 4BE6           ;         case PARASPAGE:       ParasKeyDown();break;//气压时间等显示
 4BE6 E9DD              xcall _ParasKeyDown
 4BE8                   .dbline 1894
 4BE8 89C0              xjmp L1137
 4BEA           L1151:
 4BEA                   .dbline 1895
 4BEA           ;         case VERSIONPAGE: VersionKeyDown();break;//脉冲
 4BEA 97DE              xcall _VersionKeyDown
 4BEC                   .dbline 1895
 4BEC 87C0              xjmp L1137
 4BEE           L1152:
 4BEE                   .dbline 1896
 4BEE           ;         case RESETPAGE:       ResetKeyDown();break;//复位？
 4BEE F4DE              xcall _ResetKeyDown
 4BF0                   .dbline 1896
 4BF0 85C0              xjmp L1137
 4BF2           L1153:
 4BF2                   .dbline 1897
 4BF2           ;         case PASSWORDPAGE:PasswordKeyDown();break;//密码设置
 4BF2 0E941D12          xcall _PasswordKeyDown
 4BF6                   .dbline 1897
 4BF6 82C0              xjmp L1137
 4BF8           L1154:
 4BF8                   .dbline 1898
 4BF8           ;         case SYSTEMPAGE:  SystemKeyDown();break;//系统设置
 4BF8 0E94A214          xcall _SystemKeyDown
 4BFC                   .dbline 1898
 4BFC 7FC0              xjmp L1137
 4BFE           L1155:
 4BFE                   .dbline 1899
 4BFE           ;         case WORKTIMEPAGE:ClearCountKeyDown();break;//清零计数
 4BFE 0E94D018          xcall _ClearCountKeyDown
 4C02                   .dbline 1899
 4C02 7CC0              xjmp L1137
 4C04           L1156:
 4C04                   .dbline 1900
 4C04           ;         case OPTIONPAGE:  OptionKeyDown();break;//功能选择
 4C04 0E94781A          xcall _OptionKeyDown
 4C08                   .dbline 1900
 4C08 79C0              xjmp L1137
 4C0A           L1157:
 4C0A                   .dbline 1901
 4C0A           ;         case PARMPAGE:    ParmKeyDown();break;//能量设置
 4C0A 0E94C519          xcall _ParmKeyDown
 4C0E                   .dbline 1901
 4C0E 76C0              xjmp L1137
 4C10           L1158:
 4C10                   .dbline 1902
 4C10           ;         case ICCARDPAGE:  CardSetKeyDown();break;
 4C10 0E941F1B          xcall _CardSetKeyDown
 4C14                   .dbline 1902
 4C14 73C0              xjmp L1137
 4C16           L1159:
 4C16                   .dbline 1903
 4C16           ;         case PASSSETPAGE: PassSetKeyDown();break;//密码设置
 4C16 0E94651B          xcall _PassSetKeyDown
 4C1A                   .dbline 1903
 4C1A 70C0              xjmp L1137
 4C1C           L1160:
 4C1C                   .dbline 1904
 4C1C           ;         case WORKPAGE:    WorkKeyDown();break;
 4C1C 9ED9              xcall _WorkKeyDown
 4C1E                   .dbline 1904
 4C1E 6EC0              xjmp L1137
 4C20           L1161:
 4C20                   .dbline 1905
 4C20           ;     case ultrasonicpage: ULKeyDown();break;//爆脂页
 4C20 B7DA              xcall _ULKeyDown
 4C22                   .dbline 1905
 4C22 6CC0              xjmp L1137
 4C24           L1138:
 4C24                   .dbline 1906
 4C24           ;         default:WorkKeyDown(); break;
 4C24 9AD9              xcall _WorkKeyDown
 4C26                   .dbline 1906
 4C26                   .dbline 1908
 4C26           ;       }
 4C26           ;   }
 4C26 6AC0              xjmp L1137
 4C28           L1136:
 4C28                   .dbline 1909
 4C28           ;   else if(Touch_Event==TOUCH_KEEP)
 4C28 80910000          lds R24,_Touch_Event
 4C2C 8230              cpi R24,2
 4C2E 49F4              brne L1163
 4C30           X513:
 4C30                   .dbline 1910
 4C30           ;   {
 4C30                   .dbline 1911
 4C30           ;     if(Touch_Buf==TOUCH_UP) 
 4C30 80910000          lds R24,_Touch_Buf
 4C34 8330              cpi R24,3
 4C36 09F0              breq X522
 4C38 61C0              xjmp L1164
 4C3A           X522:
 4C3A           X514:
 4C3A                   .dbline 1912
 4C3A           ;       {
 4C3A                   .dbline 1913
 4C3A           ;        Touch_Event=TOUCH_UP;
 4C3A 83E0              ldi R24,3
 4C3C 80930000          sts _Touch_Event,R24
 4C40                   .dbline 1914
 4C40           ;       }
 4C40                   .dbline 1915
 4C40           ;   }
 4C40 5DC0              xjmp L1164
 4C42           L1163:
 4C42                   .dbline 1916
 4C42           ;   else if(Touch_Event==TOUCH_UP)
 4C42 80910000          lds R24,_Touch_Event
 4C46 8330              cpi R24,3
 4C48 09F0              breq X523
 4C4A 55C0              xjmp L1167
 4C4C           X523:
 4C4C           X515:
 4C4C                   .dbline 1917
 4C4C           ;   {
 4C4C                   .dbline 1918
 4C4C           ;       Touch_Event=TOUCH_NULL;
 4C4C 2224              clr R2
 4C4E 20920000          sts _Touch_Event,R2
 4C52                   .dbline 1919
 4C52           ;       switch(DisPage)
 4C52 40910000          lds R20,_DisPage
 4C56 5527              clr R21
 4C58 4030              cpi R20,0
 4C5A E0E0              ldi R30,0
 4C5C 5E07              cpc R21,R30
 4C5E 0CF4              brge X524
 4C60 48C0              xjmp L1169
 4C62           X524:
 4C62           X516:
 4C62 87E1              ldi R24,23
 4C64 90E0              ldi R25,0
 4C66 8417              cp R24,R20
 4C68 9507              cpc R25,R21
 4C6A 0CF4              brge X525
 4C6C 42C0              xjmp L1169
 4C6E           X525:
 4C6E           X517:
 4C6E 80E0              ldi R24,<L1193
 4C70 90E0              ldi R25,>L1193
 4C72 FA01              movw R30,R20
 4C74 EE0F              lsl R30
 4C76 FF1F              rol R31
 4C78 E80F              add R30,R24
 4C7A F91F              adc R31,R25
 4C7C 2790              elpm R2,Z+
 4C7E 3690              elpm R3,Z
 4C80 F101              movw R30,R2
 4C82 0994               ijmp
 4C84           X518:
 4C84                   .dbfile E:\1.JD_Project\21.Android-360\1.Android-360Code\App\app.c
 4C84                   .dbline 1920
 4C84           ;       {
 4C84           L1172:
 4C84                   .dbline 1921
 4C84           ;         case WELCOMEPAGE:  MainKeyUp();break;
 4C84 0E943204          xcall _MainKeyUp
 4C88                   .dbline 1921
 4C88 39C0              xjmp L1168
 4C8A           L1173:
 4C8A                   .dbline 1922
 4C8A           ;         case STARTPAGE:    StartKeyUp();break;
 4C8A 0E940C08          xcall _StartKeyUp
 4C8E                   .dbline 1922
 4C8E 36C0              xjmp L1168
 4C90           L1174:
 4C90                   .dbline 1923
 4C90           ;         case TIMEPAGE:     TimeKeyUp();break;
 4C90 0E94540A          xcall _TimeKeyUp
 4C94                   .dbline 1923
 4C94 33C0              xjmp L1168
 4C96           L1176:
 4C96                   .dbline 1925
 4C96           ;         case TOUCHPAGE:    break;
 4C96           ;         case SOUNDPAGE:    SoundKeyUP();break;
 4C96 0E94FD0B          xcall _SoundKeyUP
 4C9A                   .dbline 1925
 4C9A 30C0              xjmp L1168
 4C9C           L1177:
 4C9C                   .dbline 1926
 4C9C           ;         case LANGUAGEPAGE: LanguageKeyUp();break;
 4C9C 0E94890C          xcall _LanguageKeyUp
 4CA0                   .dbline 1926
 4CA0 2DC0              xjmp L1168
 4CA2           L1178:
 4CA2                   .dbline 1927
 4CA2           ;         case BACKPAGE:     BackKeyUp();break;
 4CA2 0E94350D          xcall _BackKeyUp
 4CA6                   .dbline 1927
 4CA6 2AC0              xjmp L1168
 4CA8           L1179:
 4CA8                   .dbline 1928
 4CA8           ;         case USBPAGE:      USBKeyUp();break;
 4CA8 0E948D0D          xcall _USBKeyUp
 4CAC                   .dbline 1928
 4CAC 27C0              xjmp L1168
 4CAE           L1180:
 4CAE                   .dbline 1929
 4CAE           ;         case CARDPAGE:     CardKeyUp();break;
 4CAE 0E941E11          xcall _CardKeyUp
 4CB2                   .dbline 1929
 4CB2 24C0              xjmp L1168
 4CB4           L1181:
 4CB4                   .dbline 1930
 4CB4           ;         case OPTIONPAGE:   OptionKeyUp();break;
 4CB4 0E94EF1A          xcall _OptionKeyUp
 4CB8                   .dbline 1930
 4CB8 21C0              xjmp L1168
 4CBA           L1182:
 4CBA                   .dbline 1931
 4CBA           ;         case PARASPAGE:        ParasKeyUp();break;
 4CBA 1FDE              xcall _ParasKeyUp
 4CBC                   .dbline 1931
 4CBC 1FC0              xjmp L1168
 4CBE           L1183:
 4CBE                   .dbline 1932
 4CBE           ;         case VERSIONPAGE:  VersionKeyUp();break;
 4CBE 7CDE              xcall _VersionKeyUp
 4CC0                   .dbline 1932
 4CC0 1DC0              xjmp L1168
 4CC2           L1184:
 4CC2                   .dbline 1933
 4CC2           ;         case RESETPAGE:        ResetKeyUp();break;
 4CC2 DADE              xcall _ResetKeyUp
 4CC4                   .dbline 1933
 4CC4 1BC0              xjmp L1168
 4CC6           L1185:
 4CC6                   .dbline 1934
 4CC6           ;         case PASSWORDPAGE: PasswordKeyUp();break;
 4CC6 0E946014          xcall _PasswordKeyUp
 4CCA                   .dbline 1934
 4CCA 18C0              xjmp L1168
 4CCC           L1186:
 4CCC                   .dbline 1935
 4CCC           ;         case SYSTEMPAGE:   SystemKeyUp();break;
 4CCC 0E94C118          xcall _SystemKeyUp
 4CD0                   .dbline 1935
 4CD0 15C0              xjmp L1168
 4CD2           L1187:
 4CD2                   .dbline 1936
 4CD2           ;         case WORKTIMEPAGE: ClearCountKeyUp();break;
 4CD2 0E946819          xcall _ClearCountKeyUp
 4CD6                   .dbline 1936
 4CD6 12C0              xjmp L1168
 4CD8           L1188:
 4CD8                   .dbline 1937
 4CD8           ;         case PARMPAGE:     ParmKeyUp();break;
 4CD8 0E94C619          xcall _ParmKeyUp
 4CDC                   .dbline 1937
 4CDC 0FC0              xjmp L1168
 4CDE           L1189:
 4CDE                   .dbline 1938
 4CDE           ;         case ICCARDPAGE:   CardSetKeyUp();break;
 4CDE 0E94551B          xcall _CardSetKeyUp
 4CE2                   .dbline 1938
 4CE2 0CC0              xjmp L1168
 4CE4           L1190:
 4CE4                   .dbline 1939
 4CE4           ;         case PASSSETPAGE:  PassSetKeyUp();break;
 4CE4 0E94D01D          xcall _PassSetKeyUp
 4CE8                   .dbline 1939
 4CE8 09C0              xjmp L1168
 4CEA           L1191:
 4CEA                   .dbline 1940
 4CEA           ;         case WORKPAGE:     WorkKeyUp();break;  
 4CEA 38D9              xcall _WorkKeyUp
 4CEC                   .dbline 1940
 4CEC 07C0              xjmp L1168
 4CEE           L1192:
 4CEE                   .dbline 1941
 4CEE           ;     case ultrasonicpage: ULKeyUP();break;               
 4CEE A5DC              xcall _ULKeyUP
 4CF0                   .dbline 1941
 4CF0 05C0              xjmp L1168
 4CF2           L1169:
 4CF2                   .dbline 1942
 4CF2           ;         default:WorkKeyUp(); break;
 4CF2 34D9              xcall _WorkKeyUp
 4CF4                   .dbline 1942
 4CF4                   .dbline 1944
 4CF4           ;       }
 4CF4           ;   }
 4CF4 03C0              xjmp L1168
 4CF6           L1167:
 4CF6                   .dbline 1945
 4CF6           ;   else Touch_Event=TOUCH_NULL;
 4CF6 2224              clr R2
 4CF8 20920000          sts _Touch_Event,R2
 4CFC           L1168:
 4CFC           L1164:
 4CFC           L1137:
 4CFC                   .dbline 1946
 4CFC           ;   dispose_data();
 4CFC 0E940000          xcall _dispose_data
 4D00                   .dbline -2
 4D00           L1124:
 4D00                   .dbline 0 ; func end
 4D00 5991              ld R21,y+
 4D02 4991              ld R20,y+
 4D04 0895              ret
 4D06                   .dbend
 4D06           ;   //Dis_pressure();
 4D06           ; }  
